                  ??0?$ElemCollection@VDiagram@Uml@@VAssociation@2@@Uml@@QAE@ABVDiagram@1@P821@BE?AV?$ChildrenAttr@VAssociation@Uml@@U?$less@VAssociation@Uml@@@std@@@Udm_VS10@@XZP8Namespace@1@BE?AV34@XZ@Z (public: __thiscall Uml::ElemCollection<class Uml::Diagram,class Uml::Association>::ElemCollection<class Uml::Diagram,class Uml::Association>(class Uml::Diagram const &,class Udm_VS10::ChildrenAttr<class Uml::Association,struct std::less<class Uml::Association> > (__thiscall Uml::Diagram::*)(void)const ,class Udm_VS10::ChildrenAttr<class Uml::Association,struct std::less<class Uml::Association> > (__thiscall Uml::Namespace::*)(void)const ))
                  ??0?$ElemCollection@VDiagram@Uml@@VClass@2@@Uml@@QAE@ABVDiagram@1@P821@BE?AV?$ChildrenAttr@VClass@Uml@@U?$less@VClass@Uml@@@std@@@Udm_VS10@@XZP8Namespace@1@BE?AV34@XZ@Z (public: __thiscall Uml::ElemCollection<class Uml::Diagram,class Uml::Class>::ElemCollection<class Uml::Diagram,class Uml::Class>(class Uml::Diagram const &,class Udm_VS10::ChildrenAttr<class Uml::Class,struct std::less<class Uml::Class> > (__thiscall Uml::Diagram::*)(void)const ,class Udm_VS10::ChildrenAttr<class Uml::Class,struct std::less<class Uml::Class> > (__thiscall Uml::Namespace::*)(void)const ))
                  ??0?$ElemCollection@VDiagram@Uml@@VComposition@2@@Uml@@QAE@ABVDiagram@1@P821@BE?AV?$ChildrenAttr@VComposition@Uml@@U?$less@VComposition@Uml@@@std@@@Udm_VS10@@XZP8Namespace@1@BE?AV34@XZ@Z (public: __thiscall Uml::ElemCollection<class Uml::Diagram,class Uml::Composition>::ElemCollection<class Uml::Diagram,class Uml::Composition>(class Uml::Diagram const &,class Udm_VS10::ChildrenAttr<class Uml::Composition,struct std::less<class Uml::Composition> > (__thiscall Uml::Diagram::*)(void)const ,class Udm_VS10::ChildrenAttr<class Uml::Composition,struct std::less<class Uml::Composition> > (__thiscall Uml::Namespace::*)(void)const ))
                  ??0?$ElemCollection@VNamespace@Uml@@VAssociation@2@@Uml@@QAE@ABVNamespace@1@P821@BE?AV?$ChildrenAttr@VAssociation@Uml@@U?$less@VAssociation@Uml@@@std@@@Udm_VS10@@XZ1@Z (public: __thiscall Uml::ElemCollection<class Uml::Namespace,class Uml::Association>::ElemCollection<class Uml::Namespace,class Uml::Association>(class Uml::Namespace const &,class Udm_VS10::ChildrenAttr<class Uml::Association,struct std::less<class Uml::Association> > (__thiscall Uml::Namespace::*)(void)const ,class Udm_VS10::ChildrenAttr<class Uml::Association,struct std::less<class Uml::Association> > (__thiscall Uml::Namespace::*)(void)const ))
                  ??0?$ElemCollection@VNamespace@Uml@@VClass@2@@Uml@@QAE@ABVNamespace@1@P821@BE?AV?$ChildrenAttr@VClass@Uml@@U?$less@VClass@Uml@@@std@@@Udm_VS10@@XZ1@Z (public: __thiscall Uml::ElemCollection<class Uml::Namespace,class Uml::Class>::ElemCollection<class Uml::Namespace,class Uml::Class>(class Uml::Namespace const &,class Udm_VS10::ChildrenAttr<class Uml::Class,struct std::less<class Uml::Class> > (__thiscall Uml::Namespace::*)(void)const ,class Udm_VS10::ChildrenAttr<class Uml::Class,struct std::less<class Uml::Class> > (__thiscall Uml::Namespace::*)(void)const ))
                  ??0?$ElemCollection@VNamespace@Uml@@VComposition@2@@Uml@@QAE@ABVNamespace@1@P821@BE?AV?$ChildrenAttr@VComposition@Uml@@U?$less@VComposition@Uml@@@std@@@Udm_VS10@@XZ1@Z (public: __thiscall Uml::ElemCollection<class Uml::Namespace,class Uml::Composition>::ElemCollection<class Uml::Namespace,class Uml::Composition>(class Uml::Namespace const &,class Udm_VS10::ChildrenAttr<class Uml::Composition,struct std::less<class Uml::Composition> > (__thiscall Uml::Namespace::*)(void)const ,class Udm_VS10::ChildrenAttr<class Uml::Composition,struct std::less<class Uml::Composition> > (__thiscall Uml::Namespace::*)(void)const ))
                  ??0?$NamespaceCollection@VDiagram@Uml@@@Uml@@QAE@ABVDiagram@1@@Z (public: __thiscall Uml::NamespaceCollection<class Uml::Diagram>::NamespaceCollection<class Uml::Diagram>(class Uml::Diagram const &))
                  ??0?$NamespaceCollection@VNamespace@Uml@@@Uml@@QAE@ABVNamespace@1@@Z (public: __thiscall Uml::NamespaceCollection<class Uml::Namespace>::NamespaceCollection<class Uml::Namespace>(class Uml::Namespace const &))
                  ??0Association@Uml@@QAE@$$QAV01@@Z (public: __thiscall Uml::Association::Association(class Uml::Association &&))
                  ??0Association@Uml@@QAE@ABV01@@Z (public: __thiscall Uml::Association::Association(class Uml::Association const &))
                  ??0Association@Uml@@QAE@PAVObjectImpl@Udm_VS10@@@Z (public: __thiscall Uml::Association::Association(class Udm_VS10::ObjectImpl *))
                  ??0Association@Uml@@QAE@XZ (public: __thiscall Uml::Association::Association(void))
                  ??0AssociationRole@Uml@@QAE@$$QAV01@@Z (public: __thiscall Uml::AssociationRole::AssociationRole(class Uml::AssociationRole &&))
                  ??0AssociationRole@Uml@@QAE@ABV01@@Z (public: __thiscall Uml::AssociationRole::AssociationRole(class Uml::AssociationRole const &))
                  ??0AssociationRole@Uml@@QAE@PAVObjectImpl@Udm_VS10@@@Z (public: __thiscall Uml::AssociationRole::AssociationRole(class Udm_VS10::ObjectImpl *))
                  ??0AssociationRole@Uml@@QAE@XZ (public: __thiscall Uml::AssociationRole::AssociationRole(void))
                  ??0Attribute@Uml@@QAE@$$QAV01@@Z (public: __thiscall Uml::Attribute::Attribute(class Uml::Attribute &&))
                  ??0Attribute@Uml@@QAE@ABV01@@Z (public: __thiscall Uml::Attribute::Attribute(class Uml::Attribute const &))
                  ??0Attribute@Uml@@QAE@PAVObjectImpl@Udm_VS10@@@Z (public: __thiscall Uml::Attribute::Attribute(class Udm_VS10::ObjectImpl *))
                  ??0Attribute@Uml@@QAE@XZ (public: __thiscall Uml::Attribute::Attribute(void))
                  ??0BaseVisitor@Udm_VS10@@QAE@ABV01@@Z (public: __thiscall Udm_VS10::BaseVisitor::BaseVisitor(class Udm_VS10::BaseVisitor const &))
                  ??0BaseVisitor@Udm_VS10@@QAE@XZ (public: __thiscall Udm_VS10::BaseVisitor::BaseVisitor(void))
                  ??0BooleanAttr@Udm_VS10@@QAE@PAVObjectImpl@1@ABVAttribute@Uml@@@Z (public: __thiscall Udm_VS10::BooleanAttr::BooleanAttr(class Udm_VS10::ObjectImpl *,class Uml::Attribute const &))
                  ??0Class@Uml@@QAE@$$QAV01@@Z (public: __thiscall Uml::Class::Class(class Uml::Class &&))
                  ??0Class@Uml@@QAE@ABV01@@Z (public: __thiscall Uml::Class::Class(class Uml::Class const &))
                  ??0Class@Uml@@QAE@PAVObjectImpl@Udm_VS10@@@Z (public: __thiscall Uml::Class::Class(class Udm_VS10::ObjectImpl *))
                  ??0Class@Uml@@QAE@XZ (public: __thiscall Uml::Class::Class(void))
                  ??0Composition@Uml@@QAE@$$QAV01@@Z (public: __thiscall Uml::Composition::Composition(class Uml::Composition &&))
                  ??0Composition@Uml@@QAE@ABV01@@Z (public: __thiscall Uml::Composition::Composition(class Uml::Composition const &))
                  ??0Composition@Uml@@QAE@PAVObjectImpl@Udm_VS10@@@Z (public: __thiscall Uml::Composition::Composition(class Udm_VS10::ObjectImpl *))
                  ??0Composition@Uml@@QAE@XZ (public: __thiscall Uml::Composition::Composition(void))
                  ??0CompositionChildRole@Uml@@QAE@$$QAV01@@Z (public: __thiscall Uml::CompositionChildRole::CompositionChildRole(class Uml::CompositionChildRole &&))
                  ??0CompositionChildRole@Uml@@QAE@ABV01@@Z (public: __thiscall Uml::CompositionChildRole::CompositionChildRole(class Uml::CompositionChildRole const &))
                  ??0CompositionChildRole@Uml@@QAE@PAVObjectImpl@Udm_VS10@@@Z (public: __thiscall Uml::CompositionChildRole::CompositionChildRole(class Udm_VS10::ObjectImpl *))
                  ??0CompositionChildRole@Uml@@QAE@XZ (public: __thiscall Uml::CompositionChildRole::CompositionChildRole(void))
                  ??0CompositionParentRole@Uml@@QAE@$$QAV01@@Z (public: __thiscall Uml::CompositionParentRole::CompositionParentRole(class Uml::CompositionParentRole &&))
                  ??0CompositionParentRole@Uml@@QAE@ABV01@@Z (public: __thiscall Uml::CompositionParentRole::CompositionParentRole(class Uml::CompositionParentRole const &))
                  ??0CompositionParentRole@Uml@@QAE@PAVObjectImpl@Udm_VS10@@@Z (public: __thiscall Uml::CompositionParentRole::CompositionParentRole(class Udm_VS10::ObjectImpl *))
                  ??0CompositionParentRole@Uml@@QAE@XZ (public: __thiscall Uml::CompositionParentRole::CompositionParentRole(void))
                  ??0Constraint@Uml@@QAE@$$QAV01@@Z (public: __thiscall Uml::Constraint::Constraint(class Uml::Constraint &&))
                  ??0Constraint@Uml@@QAE@ABV01@@Z (public: __thiscall Uml::Constraint::Constraint(class Uml::Constraint const &))
                  ??0Constraint@Uml@@QAE@PAVObjectImpl@Udm_VS10@@@Z (public: __thiscall Uml::Constraint::Constraint(class Udm_VS10::ObjectImpl *))
                  ??0Constraint@Uml@@QAE@XZ (public: __thiscall Uml::Constraint::Constraint(void))
                  ??0ConstraintDefinition@Uml@@QAE@$$QAV01@@Z (public: __thiscall Uml::ConstraintDefinition::ConstraintDefinition(class Uml::ConstraintDefinition &&))
                  ??0ConstraintDefinition@Uml@@QAE@ABV01@@Z (public: __thiscall Uml::ConstraintDefinition::ConstraintDefinition(class Uml::ConstraintDefinition const &))
                  ??0ConstraintDefinition@Uml@@QAE@PAVObjectImpl@Udm_VS10@@@Z (public: __thiscall Uml::ConstraintDefinition::ConstraintDefinition(class Udm_VS10::ObjectImpl *))
                  ??0ConstraintDefinition@Uml@@QAE@XZ (public: __thiscall Uml::ConstraintDefinition::ConstraintDefinition(void))
                  ??0DataNetwork@Udm_VS10@@IAE@ABUUdmDiagram@1@PAVUdmProject@1@@Z (protected: __thiscall Udm_VS10::DataNetwork::DataNetwork(struct Udm_VS10::UdmDiagram const &,class Udm_VS10::UdmProject *))
                  ??0DataNetworkSpecifier@Udm_VS10@@QAE@V?$basic_string@DU?$char_traits@D@std@@V?$allocator@D@2@@std@@0AAVClass@Uml@@@Z (public: __thiscall Udm_VS10::DataNetworkSpecifier::DataNetworkSpecifier(class std::basic_string<char,struct std::char_traits<char>,class std::allocator<char> >,class std::basic_string<char,struct std::char_traits<char>,class std::allocator<char> >,class Uml::Class &))
                  ??0Diagram@Uml@@QAE@$$QAV01@@Z (public: __thiscall Uml::Diagram::Diagram(class Uml::Diagram &&))
                  ??0Diagram@Uml@@QAE@ABV01@@Z (public: __thiscall Uml::Diagram::Diagram(class Uml::Diagram const &))
                  ??0Diagram@Uml@@QAE@PAVObjectImpl@Udm_VS10@@@Z (public: __thiscall Uml::Diagram::Diagram(class Udm_VS10::ObjectImpl *))
                  ??0Diagram@Uml@@QAE@XZ (public: __thiscall Uml::Diagram::Diagram(void))
                  ??0DiagramAssociations@Uml@@QAE@ABVDiagram@1@@Z (public: __thiscall Uml::DiagramAssociations::DiagramAssociations(class Uml::Diagram const &))
                  ??0DiagramClasses@Uml@@QAE@ABVDiagram@1@@Z (public: __thiscall Uml::DiagramClasses::DiagramClasses(class Uml::Diagram const &))
                  ??0DiagramCompositions@Uml@@QAE@ABVDiagram@1@@Z (public: __thiscall Uml::DiagramCompositions::DiagramCompositions(class Uml::Diagram const &))
                  ??0DiagramNamespaces@Uml@@QAE@ABVDiagram@1@@Z (public: __thiscall Uml::DiagramNamespaces::DiagramNamespaces(class Uml::Diagram const &))
                  ??0DomDataNetwork@UdmDom@@QAE@ABUUdmDiagram@Udm_VS10@@PAVUdmProject@3@@Z (public: __thiscall UdmDom::DomDataNetwork::DomDataNetwork(struct Udm_VS10::UdmDiagram const &,class Udm_VS10::UdmProject *))
                  ??0DynamicMetaSpecifier@Udm_VS10@@QAE@ABV01@@Z (public: __thiscall Udm_VS10::DynamicMetaSpecifier::DynamicMetaSpecifier(class Udm_VS10::DynamicMetaSpecifier const &))
                  ??0DynamicMetaSpecifier@Udm_VS10@@QAE@ABV?$basic_string@DU?$char_traits@D@std@@V?$allocator@D@2@@std@@ABUUdmDiagram@1@@Z (public: __thiscall Udm_VS10::DynamicMetaSpecifier::DynamicMetaSpecifier(class std::basic_string<char,struct std::char_traits<char>,class std::allocator<char> > const &,struct Udm_VS10::UdmDiagram const &))
                  ??0Evaluator@Ocl@@QAE@ABV01@@Z (public: __thiscall Ocl::Evaluator::Evaluator(class Ocl::Evaluator const &))
                  ??0Evaluator@Ocl@@QAE@ABVObject@Udm_VS10@@ABV?$set@VConstraint@Uml@@U?$less@VConstraint@Uml@@@std@@V?$allocator@VConstraint@Uml@@@4@@std@@@Z (public: __thiscall Ocl::Evaluator::Evaluator(class Udm_VS10::Object const &,class std::set<class Uml::Constraint,struct std::less<class Uml::Constraint>,class std::allocator<class Uml::Constraint> > const &))
                  ??0GenericRole@Uml@@QAE@$$QAV01@@Z (public: __thiscall Uml::GenericRole::GenericRole(class Uml::GenericRole &&))
                  ??0GenericRole@Uml@@QAE@ABV01@@Z (public: __thiscall Uml::GenericRole::GenericRole(class Uml::GenericRole const &))
                  ??0GenericRole@Uml@@QAE@PAVObjectImpl@Udm_VS10@@@Z (public: __thiscall Uml::GenericRole::GenericRole(class Udm_VS10::ObjectImpl *))
                  ??0GenericRole@Uml@@QAE@XZ (public: __thiscall Uml::GenericRole::GenericRole(void))
                  ??0GmeDataNetwork@UdmGme@@QAE@ABUUdmDiagram@Udm_VS10@@PAVUdmProject@3@@Z (public: __thiscall UdmGme::GmeDataNetwork::GmeDataNetwork(struct Udm_VS10::UdmDiagram const &,class Udm_VS10::UdmProject *))
                  ??0IntegerAttr@Udm_VS10@@QAE@PAVObjectImpl@1@ABVAttribute@Uml@@@Z (public: __thiscall Udm_VS10::IntegerAttr::IntegerAttr(class Udm_VS10::ObjectImpl *,class Uml::Attribute const &))
                  ??0Namespace@Uml@@QAE@$$QAV01@@Z (public: __thiscall Uml::Namespace::Namespace(class Uml::Namespace &&))
                  ??0Namespace@Uml@@QAE@ABV01@@Z (public: __thiscall Uml::Namespace::Namespace(class Uml::Namespace const &))
                  ??0Namespace@Uml@@QAE@PAVObjectImpl@Udm_VS10@@@Z (public: __thiscall Uml::Namespace::Namespace(class Udm_VS10::ObjectImpl *))
                  ??0Namespace@Uml@@QAE@XZ (public: __thiscall Uml::Namespace::Namespace(void))
                  ??0NamespaceAssociations@Uml@@QAE@ABVNamespace@1@@Z (public: __thiscall Uml::NamespaceAssociations::NamespaceAssociations(class Uml::Namespace const &))
                  ??0NamespaceClasses@Uml@@QAE@ABVNamespace@1@@Z (public: __thiscall Uml::NamespaceClasses::NamespaceClasses(class Uml::Namespace const &))
                  ??0NamespaceCompositions@Uml@@QAE@ABVNamespace@1@@Z (public: __thiscall Uml::NamespaceCompositions::NamespaceCompositions(class Uml::Namespace const &))
                  ??0NamespaceNamespaces@Uml@@QAE@ABVNamespace@1@@Z (public: __thiscall Uml::NamespaceNamespaces::NamespaceNamespaces(class Uml::Namespace const &))
                  ??0Object@Udm_VS10@@QAE@$$QAV01@@Z (public: __thiscall Udm_VS10::Object::Object(class Udm_VS10::Object &&))
                  ??0Object@Udm_VS10@@QAE@ABV01@@Z (public: __thiscall Udm_VS10::Object::Object(class Udm_VS10::Object const &))
                  ??0Object@Udm_VS10@@QAE@PAVObjectImpl@1@@Z (public: __thiscall Udm_VS10::Object::Object(class Udm_VS10::ObjectImpl *))
                  ??0Object@Udm_VS10@@QAE@XZ (public: __thiscall Udm_VS10::Object::Object(void))
                  ??0ObjectImpl@Udm_VS10@@QAE@ABV01@@Z (public: __thiscall Udm_VS10::ObjectImpl::ObjectImpl(class Udm_VS10::ObjectImpl const &))
                  ??0ObjectImpl@Udm_VS10@@QAE@XZ (public: __thiscall Udm_VS10::ObjectImpl::ObjectImpl(void))
                  ??0RealAttr@Udm_VS10@@QAE@PAVObjectImpl@1@ABVAttribute@Uml@@@Z (public: __thiscall Udm_VS10::RealAttr::RealAttr(class Udm_VS10::ObjectImpl *,class Uml::Attribute const &))
                  ??0StaticDataNetwork@UdmStatic@@QAE@ABUUdmDiagram@Udm_VS10@@PAVUdmProject@3@@Z (public: __thiscall UdmStatic::StaticDataNetwork::StaticDataNetwork(struct Udm_VS10::UdmDiagram const &,class Udm_VS10::UdmProject *))
                  ??0StaticDataNetworkSpecifier@Udm_VS10@@QAE@V?$basic_string@DU?$char_traits@D@std@@V?$allocator@D@2@@std@@PAVDataNetwork@1@@Z (public: __thiscall Udm_VS10::StaticDataNetworkSpecifier::StaticDataNetworkSpecifier(class std::basic_string<char,struct std::char_traits<char>,class std::allocator<char> >,class Udm_VS10::DataNetwork *))
                  ??0StaticDataNetworkSpecifier@Udm_VS10@@QAE@V?$basic_string@DU?$char_traits@D@std@@V?$allocator@D@2@@std@@PAVSmartDataNetwork@1@@Z (public: __thiscall Udm_VS10::StaticDataNetworkSpecifier::StaticDataNetworkSpecifier(class std::basic_string<char,struct std::char_traits<char>,class std::allocator<char> >,class Udm_VS10::SmartDataNetwork *))
                  ??0StaticUdmProject@Udm_VS10@@QAE@ABV?$basic_string@DU?$char_traits@D@std@@V?$allocator@D@2@@std@@V?$vector@VDataNetworkSpecifier@Udm_VS10@@V?$allocator@VDataNetworkSpecifier@Udm_VS10@@@std@@@3@ABUUdmDiagram@1@W4BackendSemantics@1@@Z (public: __thiscall Udm_VS10::StaticUdmProject::StaticUdmProject(class std::basic_string<char,struct std::char_traits<char>,class std::allocator<char> > const &,class std::vector<class Udm_VS10::DataNetworkSpecifier,class std::allocator<class Udm_VS10::DataNetworkSpecifier> >,struct Udm_VS10::UdmDiagram const &,enum Udm_VS10::BackendSemantics))
                  ??0StaticUdmProject@Udm_VS10@@QAE@V?$vector@VStaticDataNetworkSpecifier@Udm_VS10@@V?$allocator@VStaticDataNetworkSpecifier@Udm_VS10@@@std@@@std@@ABUUdmDiagram@1@@Z (public: __thiscall Udm_VS10::StaticUdmProject::StaticUdmProject(class std::vector<class Udm_VS10::StaticDataNetworkSpecifier,class std::allocator<class Udm_VS10::StaticDataNetworkSpecifier> >,struct Udm_VS10::UdmDiagram const &))
                  ??0StaticUdmProject@Udm_VS10@@QAE@XZ (public: __thiscall Udm_VS10::StaticUdmProject::StaticUdmProject(void))
                  ??0StringAttr@Udm_VS10@@QAE@PAVObjectImpl@1@ABVAttribute@Uml@@@Z (public: __thiscall Udm_VS10::StringAttr::StringAttr(class Udm_VS10::ObjectImpl *,class Uml::Attribute const &))
                  ??0TaggedValue@Uml@@QAE@$$QAV01@@Z (public: __thiscall Uml::TaggedValue::TaggedValue(class Uml::TaggedValue &&))
                  ??0TaggedValue@Uml@@QAE@ABV01@@Z (public: __thiscall Uml::TaggedValue::TaggedValue(class Uml::TaggedValue const &))
                  ??0TaggedValue@Uml@@QAE@PAVObjectImpl@Udm_VS10@@@Z (public: __thiscall Uml::TaggedValue::TaggedValue(class Udm_VS10::ObjectImpl *))
                  ??0TaggedValue@Uml@@QAE@XZ (public: __thiscall Uml::TaggedValue::TaggedValue(void))
                  ??0TempBooleanAttr@Udm_VS10@@QAE@PAVObjectImpl@1@ABVAttribute@Uml@@@Z (public: __thiscall Udm_VS10::TempBooleanAttr::TempBooleanAttr(class Udm_VS10::ObjectImpl *,class Uml::Attribute const &))
                  ??0TempIntegerAttr@Udm_VS10@@QAE@PAVObjectImpl@1@ABVAttribute@Uml@@@Z (public: __thiscall Udm_VS10::TempIntegerAttr::TempIntegerAttr(class Udm_VS10::ObjectImpl *,class Uml::Attribute const &))
                  ??0TempRealAttr@Udm_VS10@@QAE@PAVObjectImpl@1@ABVAttribute@Uml@@@Z (public: __thiscall Udm_VS10::TempRealAttr::TempRealAttr(class Udm_VS10::ObjectImpl *,class Uml::Attribute const &))
                  ??0TempStringAttr@Udm_VS10@@QAE@PAVObjectImpl@1@ABVAttribute@Uml@@@Z (public: __thiscall Udm_VS10::TempStringAttr::TempStringAttr(class Udm_VS10::ObjectImpl *,class Uml::Attribute const &))
                  ??0UdmProject@Udm_VS10@@QAE@_N@Z (public: __thiscall Udm_VS10::UdmProject::UdmProject(bool))
                  ??0cint_string@@QAE@ABV0@@Z (public: __thiscall cint_string::cint_string(class cint_string const &))
                  ??0cint_string@@QAE@H@Z (public: __thiscall cint_string::cint_string(int))
                  ??0cint_string@@QAE@PBD@Z (public: __thiscall cint_string::cint_string(char const *))
                  ??0cint_string@@QAE@XZ (public: __thiscall cint_string::cint_string(void))
                  ??1Association@Uml@@QAE@XZ (public: __thiscall Uml::Association::~Association(void))
                  ??1AssociationRole@Uml@@QAE@XZ (public: __thiscall Uml::AssociationRole::~AssociationRole(void))
                  ??1Attribute@Uml@@QAE@XZ (public: __thiscall Uml::Attribute::~Attribute(void))
                  ??1BaseVisitor@Udm_VS10@@UAE@XZ (public: virtual __thiscall Udm_VS10::BaseVisitor::~BaseVisitor(void))
                  ??1Class@Uml@@QAE@XZ (public: __thiscall Uml::Class::~Class(void))
                  ??1Composition@Uml@@QAE@XZ (public: __thiscall Uml::Composition::~Composition(void))
                  ??1CompositionChildRole@Uml@@QAE@XZ (public: __thiscall Uml::CompositionChildRole::~CompositionChildRole(void))
                  ??1CompositionParentRole@Uml@@QAE@XZ (public: __thiscall Uml::CompositionParentRole::~CompositionParentRole(void))
                  ??1Constraint@Uml@@QAE@XZ (public: __thiscall Uml::Constraint::~Constraint(void))
                  ??1ConstraintDefinition@Uml@@QAE@XZ (public: __thiscall Uml::ConstraintDefinition::~ConstraintDefinition(void))
                  ??1DataNetwork@Udm_VS10@@UAE@XZ (public: virtual __thiscall Udm_VS10::DataNetwork::~DataNetwork(void))
                  ??1Diagram@Uml@@QAE@XZ (public: __thiscall Uml::Diagram::~Diagram(void))
                  ??1DomDataNetwork@UdmDom@@UAE@XZ (public: virtual __thiscall UdmDom::DomDataNetwork::~DomDataNetwork(void))
                  ??1DynamicMetaSpecifier@Udm_VS10@@QAE@XZ (public: __thiscall Udm_VS10::DynamicMetaSpecifier::~DynamicMetaSpecifier(void))
                  ??1Evaluator@Ocl@@QAE@XZ (public: __thiscall Ocl::Evaluator::~Evaluator(void))
                  ??1GenericRole@Uml@@QAE@XZ (public: __thiscall Uml::GenericRole::~GenericRole(void))
                  ??1GmeDataNetwork@UdmGme@@UAE@XZ (public: virtual __thiscall UdmGme::GmeDataNetwork::~GmeDataNetwork(void))
                  ??1Namespace@Uml@@QAE@XZ (public: __thiscall Uml::Namespace::~Namespace(void))
                  ??1Object@Udm_VS10@@QAE@XZ (public: __thiscall Udm_VS10::Object::~Object(void))
                  ??1StaticDataNetwork@UdmStatic@@UAE@XZ (public: virtual __thiscall UdmStatic::StaticDataNetwork::~StaticDataNetwork(void))
                  ??1StaticUdmProject@Udm_VS10@@UAE@XZ (public: virtual __thiscall Udm_VS10::StaticUdmProject::~StaticUdmProject(void))
                  ??1TaggedValue@Uml@@QAE@XZ (public: __thiscall Uml::TaggedValue::~TaggedValue(void))
                  ??1UdmProject@Udm_VS10@@UAE@XZ (public: virtual __thiscall Udm_VS10::UdmProject::~UdmProject(void))
                  ??1cint_string@@QAE@XZ (public: __thiscall cint_string::~cint_string(void))
                  ??4Association@Uml@@QAEAAV01@$$QAV01@@Z (public: class Uml::Association & __thiscall Uml::Association::operator=(class Uml::Association &&))
                  ??4Association@Uml@@QAEAAV01@ABV01@@Z (public: class Uml::Association & __thiscall Uml::Association::operator=(class Uml::Association const &))
                  ??4AssociationRole@Uml@@QAEAAV01@$$QAV01@@Z (public: class Uml::AssociationRole & __thiscall Uml::AssociationRole::operator=(class Uml::AssociationRole &&))
                  ??4AssociationRole@Uml@@QAEAAV01@ABV01@@Z (public: class Uml::AssociationRole & __thiscall Uml::AssociationRole::operator=(class Uml::AssociationRole const &))
                  ??4Attribute@Uml@@QAEAAV01@$$QAV01@@Z (public: class Uml::Attribute & __thiscall Uml::Attribute::operator=(class Uml::Attribute &&))
                  ??4Attribute@Uml@@QAEAAV01@ABV01@@Z (public: class Uml::Attribute & __thiscall Uml::Attribute::operator=(class Uml::Attribute const &))
                  ??4BaseVisitor@Udm_VS10@@QAEAAV01@ABV01@@Z (public: class Udm_VS10::BaseVisitor & __thiscall Udm_VS10::BaseVisitor::operator=(class Udm_VS10::BaseVisitor const &))
                  ??4BooleanAttr@Udm_VS10@@QAEAAV01@ABV01@@Z (public: class Udm_VS10::BooleanAttr & __thiscall Udm_VS10::BooleanAttr::operator=(class Udm_VS10::BooleanAttr const &))
                  ??4BooleanAttr@Udm_VS10@@QAEAAV01@_N@Z (public: class Udm_VS10::BooleanAttr & __thiscall Udm_VS10::BooleanAttr::operator=(bool))
                  ??4Class@Uml@@QAEAAV01@$$QAV01@@Z (public: class Uml::Class & __thiscall Uml::Class::operator=(class Uml::Class &&))
                  ??4Class@Uml@@QAEAAV01@ABV01@@Z (public: class Uml::Class & __thiscall Uml::Class::operator=(class Uml::Class const &))
                  ??4Composition@Uml@@QAEAAV01@$$QAV01@@Z (public: class Uml::Composition & __thiscall Uml::Composition::operator=(class Uml::Composition &&))
                  ??4Composition@Uml@@QAEAAV01@ABV01@@Z (public: class Uml::Composition & __thiscall Uml::Composition::operator=(class Uml::Composition const &))
                  ??4CompositionChildRole@Uml@@QAEAAV01@$$QAV01@@Z (public: class Uml::CompositionChildRole & __thiscall Uml::CompositionChildRole::operator=(class Uml::CompositionChildRole &&))
                  ??4CompositionChildRole@Uml@@QAEAAV01@ABV01@@Z (public: class Uml::CompositionChildRole & __thiscall Uml::CompositionChildRole::operator=(class Uml::CompositionChildRole const &))
                  ??4CompositionParentRole@Uml@@QAEAAV01@$$QAV01@@Z (public: class Uml::CompositionParentRole & __thiscall Uml::CompositionParentRole::operator=(class Uml::CompositionParentRole &&))
                  ??4CompositionParentRole@Uml@@QAEAAV01@ABV01@@Z (public: class Uml::CompositionParentRole & __thiscall Uml::CompositionParentRole::operator=(class Uml::CompositionParentRole const &))
                  ??4Constraint@Uml@@QAEAAV01@$$QAV01@@Z (public: class Uml::Constraint & __thiscall Uml::Constraint::operator=(class Uml::Constraint &&))
                  ??4Constraint@Uml@@QAEAAV01@ABV01@@Z (public: class Uml::Constraint & __thiscall Uml::Constraint::operator=(class Uml::Constraint const &))
                  ??4ConstraintDefinition@Uml@@QAEAAV01@$$QAV01@@Z (public: class Uml::ConstraintDefinition & __thiscall Uml::ConstraintDefinition::operator=(class Uml::ConstraintDefinition &&))
                  ??4ConstraintDefinition@Uml@@QAEAAV01@ABV01@@Z (public: class Uml::ConstraintDefinition & __thiscall Uml::ConstraintDefinition::operator=(class Uml::ConstraintDefinition const &))
                  ??4DataNetwork@Udm_VS10@@QAEAAV01@AAV01@@Z (public: class Udm_VS10::DataNetwork & __thiscall Udm_VS10::DataNetwork::operator=(class Udm_VS10::DataNetwork &))
                  ??4DataNetworkSpecifier@Udm_VS10@@QAEAAV01@ABV01@@Z (public: class Udm_VS10::DataNetworkSpecifier & __thiscall Udm_VS10::DataNetworkSpecifier::operator=(class Udm_VS10::DataNetworkSpecifier const &))
                  ??4Diagram@Uml@@QAEAAV01@$$QAV01@@Z (public: class Uml::Diagram & __thiscall Uml::Diagram::operator=(class Uml::Diagram &&))
                  ??4Diagram@Uml@@QAEAAV01@ABV01@@Z (public: class Uml::Diagram & __thiscall Uml::Diagram::operator=(class Uml::Diagram const &))
                  ??4Evaluator@Ocl@@QAEAAV01@ABV01@@Z (public: class Ocl::Evaluator & __thiscall Ocl::Evaluator::operator=(class Ocl::Evaluator const &))
                  ??4GenericRole@Uml@@QAEAAV01@$$QAV01@@Z (public: class Uml::GenericRole & __thiscall Uml::GenericRole::operator=(class Uml::GenericRole &&))
                  ??4GenericRole@Uml@@QAEAAV01@ABV01@@Z (public: class Uml::GenericRole & __thiscall Uml::GenericRole::operator=(class Uml::GenericRole const &))
                  ??4IntegerAttr@Udm_VS10@@QAEAAV01@ABV01@@Z (public: class Udm_VS10::IntegerAttr & __thiscall Udm_VS10::IntegerAttr::operator=(class Udm_VS10::IntegerAttr const &))
                  ??4IntegerAttr@Udm_VS10@@QAEAAV01@_J@Z (public: class Udm_VS10::IntegerAttr & __thiscall Udm_VS10::IntegerAttr::operator=(__int64))
                  ??4MetaDepository@Udm_VS10@@QAEAAV01@ABV01@@Z (public: class Udm_VS10::MetaDepository & __thiscall Udm_VS10::MetaDepository::operator=(class Udm_VS10::MetaDepository const &))
                  ??4Namespace@Uml@@QAEAAV01@$$QAV01@@Z (public: class Uml::Namespace & __thiscall Uml::Namespace::operator=(class Uml::Namespace &&))
                  ??4Namespace@Uml@@QAEAAV01@ABV01@@Z (public: class Uml::Namespace & __thiscall Uml::Namespace::operator=(class Uml::Namespace const &))
                  ??4Object@Udm_VS10@@QAEAAV01@$$QAV01@@Z (public: class Udm_VS10::Object & __thiscall Udm_VS10::Object::operator=(class Udm_VS10::Object &&))
                  ??4Object@Udm_VS10@@QAEABV01@ABV01@@Z (public: class Udm_VS10::Object const & __thiscall Udm_VS10::Object::operator=(class Udm_VS10::Object const &))
                  ??4ObjectImpl@Udm_VS10@@QAEAAV01@ABV01@@Z (public: class Udm_VS10::ObjectImpl & __thiscall Udm_VS10::ObjectImpl::operator=(class Udm_VS10::ObjectImpl const &))
                  ??4RealAttr@Udm_VS10@@QAEAAV01@ABV01@@Z (public: class Udm_VS10::RealAttr & __thiscall Udm_VS10::RealAttr::operator=(class Udm_VS10::RealAttr const &))
                  ??4RealAttr@Udm_VS10@@QAEAAV01@N@Z (public: class Udm_VS10::RealAttr & __thiscall Udm_VS10::RealAttr::operator=(double))
                  ??4StringAttr@Udm_VS10@@QAEAAV01@ABV01@@Z (public: class Udm_VS10::StringAttr & __thiscall Udm_VS10::StringAttr::operator=(class Udm_VS10::StringAttr const &))
                  ??4StringAttr@Udm_VS10@@QAEAAV01@ABV?$basic_string@DU?$char_traits@D@std@@V?$allocator@D@2@@std@@@Z (public: class Udm_VS10::StringAttr & __thiscall Udm_VS10::StringAttr::operator=(class std::basic_string<char,struct std::char_traits<char>,class std::allocator<char> > const &))
                  ??4TaggedValue@Uml@@QAEAAV01@$$QAV01@@Z (public: class Uml::TaggedValue & __thiscall Uml::TaggedValue::operator=(class Uml::TaggedValue &&))
                  ??4TaggedValue@Uml@@QAEAAV01@ABV01@@Z (public: class Uml::TaggedValue & __thiscall Uml::TaggedValue::operator=(class Uml::TaggedValue const &))
                  ??4TempBooleanAttr@Udm_VS10@@QAEAAV01@ABV01@@Z (public: class Udm_VS10::TempBooleanAttr & __thiscall Udm_VS10::TempBooleanAttr::operator=(class Udm_VS10::TempBooleanAttr const &))
                  ??4TempBooleanAttr@Udm_VS10@@QAEAAV01@AB_N@Z (public: class Udm_VS10::TempBooleanAttr & __thiscall Udm_VS10::TempBooleanAttr::operator=(bool const &))
                  ??4TempIntegerAttr@Udm_VS10@@QAEAAV01@ABV01@@Z (public: class Udm_VS10::TempIntegerAttr & __thiscall Udm_VS10::TempIntegerAttr::operator=(class Udm_VS10::TempIntegerAttr const &))
                  ??4TempIntegerAttr@Udm_VS10@@QAEAAV01@AB_J@Z (public: class Udm_VS10::TempIntegerAttr & __thiscall Udm_VS10::TempIntegerAttr::operator=(__int64 const &))
                  ??4TempRealAttr@Udm_VS10@@QAEAAV01@ABN@Z (public: class Udm_VS10::TempRealAttr & __thiscall Udm_VS10::TempRealAttr::operator=(double const &))
                  ??4TempRealAttr@Udm_VS10@@QAEAAV01@ABV01@@Z (public: class Udm_VS10::TempRealAttr & __thiscall Udm_VS10::TempRealAttr::operator=(class Udm_VS10::TempRealAttr const &))
                  ??4TempStringAttr@Udm_VS10@@QAEAAV01@ABV01@@Z (public: class Udm_VS10::TempStringAttr & __thiscall Udm_VS10::TempStringAttr::operator=(class Udm_VS10::TempStringAttr const &))
                  ??4TempStringAttr@Udm_VS10@@QAEAAV01@ABV?$basic_string@DU?$char_traits@D@std@@V?$allocator@D@2@@std@@@Z (public: class Udm_VS10::TempStringAttr & __thiscall Udm_VS10::TempStringAttr::operator=(class std::basic_string<char,struct std::char_traits<char>,class std::allocator<char> > const &))
                  ??4cint_string@@QAEAAV0@ABV0@@Z (public: class cint_string & __thiscall cint_string::operator=(class cint_string const &))
                  ??6@YAAAV?$basic_ostream@DU?$char_traits@D@std@@@std@@AAV01@VStringAttr@Udm_VS10@@@Z (class std::basic_ostream<char,struct std::char_traits<char> > & __cdecl operator<<(class std::basic_ostream<char,struct std::char_traits<char> > &,class Udm_VS10::StringAttr))
                  ??7Object@Udm_VS10@@QBE_NXZ (public: bool __thiscall Udm_VS10::Object::operator!(void)const )
                  ??7cint_string@@QBE_NXZ (public: bool __thiscall cint_string::operator!(void)const )
                  ??8Object@Udm_VS10@@QBE_NABV01@@Z (public: bool __thiscall Udm_VS10::Object::operator==(class Udm_VS10::Object const &)const )
                  ??8StringAttr@Udm_VS10@@QBE_NABV01@@Z (public: bool __thiscall Udm_VS10::StringAttr::operator==(class Udm_VS10::StringAttr const &)const )
                  ??8StringAttr@Udm_VS10@@QBE_NABV?$basic_string@DU?$char_traits@D@std@@V?$allocator@D@2@@std@@@Z (public: bool __thiscall Udm_VS10::StringAttr::operator==(class std::basic_string<char,struct std::char_traits<char>,class std::allocator<char> > const &)const )
                  ??8StringAttr@Udm_VS10@@QBE_NQBD@Z (public: bool __thiscall Udm_VS10::StringAttr::operator==(char const * const)const )
                  ??8cint_string@@QAE_NABV0@@Z (public: bool __thiscall cint_string::operator==(class cint_string const &))
                  ??9Object@Udm_VS10@@QBE_NABV01@@Z (public: bool __thiscall Udm_VS10::Object::operator!=(class Udm_VS10::Object const &)const )
                  ??Acint_string@@QBEDH@Z (public: char __thiscall cint_string::operator[](int)const )
                  ??BBooleanAttr@Udm_VS10@@QBE_NXZ (public: __thiscall Udm_VS10::BooleanAttr::operator bool(void)const )
                  ??BIntegerAttr@Udm_VS10@@QBE_JXZ (public: __thiscall Udm_VS10::IntegerAttr::operator __int64(void)const )
                  ??BObject@Udm_VS10@@QBE_NXZ (public: __thiscall Udm_VS10::Object::operator bool(void)const )
                  ??BRealAttr@Udm_VS10@@QBENXZ (public: __thiscall Udm_VS10::RealAttr::operator double(void)const )
                  ??BStringAttr@Udm_VS10@@QBE?AV?$basic_string@DU?$char_traits@D@std@@V?$allocator@D@2@@std@@XZ (public: __thiscall Udm_VS10::StringAttr::operator class std::basic_string<char,struct std::char_traits<char>,class std::allocator<char> >(void)const )
                  ??BTempBooleanAttr@Udm_VS10@@QBE_NXZ (public: __thiscall Udm_VS10::TempBooleanAttr::operator bool(void)const )
                  ??BTempIntegerAttr@Udm_VS10@@QBE_JXZ (public: __thiscall Udm_VS10::TempIntegerAttr::operator __int64(void)const )
                  ??BTempRealAttr@Udm_VS10@@QBENXZ (public: __thiscall Udm_VS10::TempRealAttr::operator double(void)const )
                  ??BTempStringAttr@Udm_VS10@@QBE?AV?$basic_string@DU?$char_traits@D@std@@V?$allocator@D@2@@std@@XZ (public: __thiscall Udm_VS10::TempStringAttr::operator class std::basic_string<char,struct std::char_traits<char>,class std::allocator<char> >(void)const )
                  ??Bcint_string@@QBE_NXZ (public: __thiscall cint_string::operator bool(void)const )
                  ??MObject@Udm_VS10@@QBE_NABV01@@Z (public: bool __thiscall Udm_VS10::Object::operator<(class Udm_VS10::Object const &)const )
                  ??NObject@Udm_VS10@@QBE_NABV01@@Z (public: bool __thiscall Udm_VS10::Object::operator<=(class Udm_VS10::Object const &)const )
                  ??OObject@Udm_VS10@@QBE_NABV01@@Z (public: bool __thiscall Udm_VS10::Object::operator>(class Udm_VS10::Object const &)const )
                  ??PObject@Udm_VS10@@QBE_NABV01@@Z (public: bool __thiscall Udm_VS10::Object::operator>=(class Udm_VS10::Object const &)const )
                  ??Ycint_string@@QAEAAV0@ABV0@@Z (public: class cint_string & __thiscall cint_string::operator+=(class cint_string const &))
                  ??Ycint_string@@QAEAAV0@D@Z (public: class cint_string & __thiscall cint_string::operator+=(char))
                  ??Ycint_string@@QAEAAV0@H@Z (public: class cint_string & __thiscall cint_string::operator+=(int))
                  ??_7Association@Uml@@6B@ (const Uml::Association::`vftable')
                  ??_7AssociationRole@Uml@@6B@ (const Uml::AssociationRole::`vftable')
                  ??_7Attribute@Uml@@6B@ (const Uml::Attribute::`vftable')
                  ??_7BaseVisitor@Udm_VS10@@6B@ (const Udm_VS10::BaseVisitor::`vftable')
                  ??_7Class@Uml@@6B@ (const Uml::Class::`vftable')
                  ??_7Composition@Uml@@6B@ (const Uml::Composition::`vftable')
                  ??_7CompositionChildRole@Uml@@6B@ (const Uml::CompositionChildRole::`vftable')
                  ??_7CompositionParentRole@Uml@@6B@ (const Uml::CompositionParentRole::`vftable')
                  ??_7Constraint@Uml@@6B@ (const Uml::Constraint::`vftable')
                  ??_7ConstraintDefinition@Uml@@6B@ (const Uml::ConstraintDefinition::`vftable')
                  ??_7Diagram@Uml@@6B@ (const Uml::Diagram::`vftable')
                  ??_7GenericRole@Uml@@6B@ (const Uml::GenericRole::`vftable')
                  ??_7Namespace@Uml@@6B@ (const Uml::Namespace::`vftable')
                  ??_7Object@Udm_VS10@@6B@ (const Udm_VS10::Object::`vftable')
                  ??_7ObjectImpl@Udm_VS10@@6B@ (const Udm_VS10::ObjectImpl::`vftable')
                  ??_7TaggedValue@Uml@@6B@ (const Uml::TaggedValue::`vftable')
                  ??_FUdmProject@Udm_VS10@@QAEXXZ (public: void __thiscall Udm_VS10::UdmProject::`default constructor closure'(void))
                  ?AbortEditSequence@DomDataNetwork@UdmDom@@UAEXXZ (public: virtual void __thiscall UdmDom::DomDataNetwork::AbortEditSequence(void))
                  ?AbortEditSequence@GmeDataNetwork@UdmGme@@UAEXXZ (public: virtual void __thiscall UdmGme::GmeDataNetwork::AbortEditSequence(void))
                  ?AbortEditSequence@StaticDataNetwork@UdmStatic@@UAEXXZ (public: virtual void __thiscall UdmStatic::StaticDataNetwork::AbortEditSequence(void))
                  ?Accept@Object@Udm_VS10@@UAEXABVBaseVisitor@2@@Z (public: virtual void __thiscall Udm_VS10::Object::Accept(class Udm_VS10::BaseVisitor const &))
                  ?AddDynamicMeta@StaticUdmProject@Udm_VS10@@UAEXABVDynamicMetaSpecifier@2@@Z (public: virtual void __thiscall Udm_VS10::StaticUdmProject::AddDynamicMeta(class Udm_VS10::DynamicMetaSpecifier const &))
                  ?AddDynamicMeta@UdmProject@Udm_VS10@@UAEXABVDynamicMetaSpecifier@2@@Z (public: virtual void __thiscall Udm_VS10::UdmProject::AddDynamicMeta(class Udm_VS10::DynamicMetaSpecifier const &))
                  ?AddInheritance@Uml@@YAXABVClass@1@0@Z (void __cdecl Uml::AddInheritance(class Uml::Class const &,class Uml::Class const &))
                  ?AddURIToUMLNamespaceMapping@UdmDom@@YAXABV?$basic_string@DU?$char_traits@D@std@@V?$allocator@D@2@@std@@00@Z (void __cdecl UdmDom::AddURIToUMLNamespaceMapping(class std::basic_string<char,struct std::char_traits<char>,class std::allocator<char> > const &,class std::basic_string<char,struct std::char_traits<char>,class std::allocator<char> > const &,class std::basic_string<char,struct std::char_traits<char>,class std::allocator<char> > const &))
                  ?AncestorAssociationRoles@Uml@@YA?AV?$set@VAssociationRole@Uml@@U?$less@VAssociationRole@Uml@@@std@@V?$allocator@VAssociationRole@Uml@@@4@@std@@ABVClass@1@@Z (class std::set<class Uml::AssociationRole,struct std::less<class Uml::AssociationRole>,class std::allocator<class Uml::AssociationRole> > __cdecl Uml::AncestorAssociationRoles(class Uml::Class const &))
                  ?AncestorAssociationTargetRoles@Uml@@YA?AV?$set@VAssociationRole@Uml@@U?$less@VAssociationRole@Uml@@@std@@V?$allocator@VAssociationRole@Uml@@@4@@std@@ABVClass@1@@Z (class std::set<class Uml::AssociationRole,struct std::less<class Uml::AssociationRole>,class std::allocator<class Uml::AssociationRole> > __cdecl Uml::AncestorAssociationTargetRoles(class Uml::Class const &))
                  ?AncestorAttributes@Uml@@YA?AV?$set@VAttribute@Uml@@U?$less@VAttribute@Uml@@@std@@V?$allocator@VAttribute@Uml@@@4@@std@@ABVClass@1@@Z (class std::set<class Uml::Attribute,struct std::less<class Uml::Attribute>,class std::allocator<class Uml::Attribute> > __cdecl Uml::AncestorAttributes(class Uml::Class const &))
                  ?AncestorClasses@Uml@@YA?AV?$set@VClass@Uml@@U?$less@VClass@Uml@@@std@@V?$allocator@VClass@Uml@@@4@@std@@ABVClass@1@@Z (class std::set<class Uml::Class,struct std::less<class Uml::Class>,class std::allocator<class Uml::Class> > __cdecl Uml::AncestorClasses(class Uml::Class const &))
                  ?AncestorCompositionPeerChildRoles@Uml@@YA?AV?$set@VCompositionChildRole@Uml@@U?$less@VCompositionChildRole@Uml@@@std@@V?$allocator@VCompositionChildRole@Uml@@@4@@std@@ABVClass@1@@Z (class std::set<class Uml::CompositionChildRole,struct std::less<class Uml::CompositionChildRole>,class std::allocator<class Uml::CompositionChildRole> > __cdecl Uml::AncestorCompositionPeerChildRoles(class Uml::Class const &))
                  ?AncestorCompositionPeerParentRoles@Uml@@YA?AV?$set@VCompositionParentRole@Uml@@U?$less@VCompositionParentRole@Uml@@@std@@V?$allocator@VCompositionParentRole@Uml@@@4@@std@@ABVClass@1@@Z (class std::set<class Uml::CompositionParentRole,struct std::less<class Uml::CompositionParentRole>,class std::allocator<class Uml::CompositionParentRole> > __cdecl Uml::AncestorCompositionPeerParentRoles(class Uml::Class const &))
                  ?AncestorContainedClasses@Uml@@YA?AV?$set@VClass@Uml@@U?$less@VClass@Uml@@@std@@V?$allocator@VClass@Uml@@@4@@std@@ABVClass@1@@Z (class std::set<class Uml::Class,struct std::less<class Uml::Class>,class std::allocator<class Uml::Class> > __cdecl Uml::AncestorContainedClasses(class Uml::Class const &))
                  ?AncestorContainedDescendantClasses@Uml@@YA?AV?$set@VClass@Uml@@U?$less@VClass@Uml@@@std@@V?$allocator@VClass@Uml@@@4@@std@@ABVClass@1@@Z (class std::set<class Uml::Class,struct std::less<class Uml::Class>,class std::allocator<class Uml::Class> > __cdecl Uml::AncestorContainedDescendantClasses(class Uml::Class const &))
                  ?AncestorContainerClasses@Uml@@YA?AV?$set@VClass@Uml@@U?$less@VClass@Uml@@@std@@V?$allocator@VClass@Uml@@@4@@std@@ABVClass@1@@Z (class std::set<class Uml::Class,struct std::less<class Uml::Class>,class std::allocator<class Uml::Class> > __cdecl Uml::AncestorContainerClasses(class Uml::Class const &))
                  ?AncestorCrossAssociationRoles@Uml@@YA?AV?$set@VAssociationRole@Uml@@U?$less@VAssociationRole@Uml@@@std@@V?$allocator@VAssociationRole@Uml@@@4@@std@@ABVClass@1@ABVDiagram@1@@Z (class std::set<class Uml::AssociationRole,struct std::less<class Uml::AssociationRole>,class std::allocator<class Uml::AssociationRole> > __cdecl Uml::AncestorCrossAssociationRoles(class Uml::Class const &,class Uml::Diagram const &))
                  ?AncestorCrossAssociationTargetRoles@Uml@@YA?AV?$set@VAssociationRole@Uml@@U?$less@VAssociationRole@Uml@@@std@@V?$allocator@VAssociationRole@Uml@@@4@@std@@ABVClass@1@ABVDiagram@1@@Z (class std::set<class Uml::AssociationRole,struct std::less<class Uml::AssociationRole>,class std::allocator<class Uml::AssociationRole> > __cdecl Uml::AncestorCrossAssociationTargetRoles(class Uml::Class const &,class Uml::Diagram const &))
                  ?Archetype@Association@Uml@@QBE?AV?$ArchetypeAttr@VAssociation@Uml@@@Udm_VS10@@XZ (public: class Udm_VS10::ArchetypeAttr<class Uml::Association> __thiscall Uml::Association::Archetype(void)const )
                  ?Archetype@AssociationRole@Uml@@QBE?AV?$ArchetypeAttr@VAssociationRole@Uml@@@Udm_VS10@@XZ (public: class Udm_VS10::ArchetypeAttr<class Uml::AssociationRole> __thiscall Uml::AssociationRole::Archetype(void)const )
                  ?Archetype@Attribute@Uml@@QBE?AV?$ArchetypeAttr@VAttribute@Uml@@@Udm_VS10@@XZ (public: class Udm_VS10::ArchetypeAttr<class Uml::Attribute> __thiscall Uml::Attribute::Archetype(void)const )
                  ?Archetype@Class@Uml@@QBE?AV?$ArchetypeAttr@VClass@Uml@@@Udm_VS10@@XZ (public: class Udm_VS10::ArchetypeAttr<class Uml::Class> __thiscall Uml::Class::Archetype(void)const )
                  ?Archetype@Composition@Uml@@QBE?AV?$ArchetypeAttr@VComposition@Uml@@@Udm_VS10@@XZ (public: class Udm_VS10::ArchetypeAttr<class Uml::Composition> __thiscall Uml::Composition::Archetype(void)const )
                  ?Archetype@CompositionChildRole@Uml@@QBE?AV?$ArchetypeAttr@VCompositionChildRole@Uml@@@Udm_VS10@@XZ (public: class Udm_VS10::ArchetypeAttr<class Uml::CompositionChildRole> __thiscall Uml::CompositionChildRole::Archetype(void)const )
                  ?Archetype@CompositionParentRole@Uml@@QBE?AV?$ArchetypeAttr@VCompositionParentRole@Uml@@@Udm_VS10@@XZ (public: class Udm_VS10::ArchetypeAttr<class Uml::CompositionParentRole> __thiscall Uml::CompositionParentRole::Archetype(void)const )
                  ?Archetype@Constraint@Uml@@QBE?AV?$ArchetypeAttr@VConstraint@Uml@@@Udm_VS10@@XZ (public: class Udm_VS10::ArchetypeAttr<class Uml::Constraint> __thiscall Uml::Constraint::Archetype(void)const )
                  ?Archetype@ConstraintDefinition@Uml@@QBE?AV?$ArchetypeAttr@VConstraintDefinition@Uml@@@Udm_VS10@@XZ (public: class Udm_VS10::ArchetypeAttr<class Uml::ConstraintDefinition> __thiscall Uml::ConstraintDefinition::Archetype(void)const )
                  ?Archetype@Diagram@Uml@@QBE?AV?$ArchetypeAttr@VDiagram@Uml@@@Udm_VS10@@XZ (public: class Udm_VS10::ArchetypeAttr<class Uml::Diagram> __thiscall Uml::Diagram::Archetype(void)const )
                  ?Archetype@GenericRole@Uml@@QBE?AV?$ArchetypeAttr@VGenericRole@Uml@@@Udm_VS10@@XZ (public: class Udm_VS10::ArchetypeAttr<class Uml::GenericRole> __thiscall Uml::GenericRole::Archetype(void)const )
                  ?Archetype@Namespace@Uml@@QBE?AV?$ArchetypeAttr@VNamespace@Uml@@@Udm_VS10@@XZ (public: class Udm_VS10::ArchetypeAttr<class Uml::Namespace> __thiscall Uml::Namespace::Archetype(void)const )
                  ?Archetype@TaggedValue@Uml@@QBE?AV?$ArchetypeAttr@VTaggedValue@Uml@@@Udm_VS10@@XZ (public: class Udm_VS10::ArchetypeAttr<class Uml::TaggedValue> __thiscall Uml::TaggedValue::Archetype(void)const )
                  ?AssociationRole_kind_children@Association@Uml@@QBE?AV?$ChildrenAttr@VAssociationRole@Uml@@U?$less@VAssociationRole@Uml@@@std@@@Udm_VS10@@XZ (public: class Udm_VS10::ChildrenAttr<class Uml::AssociationRole,struct std::less<class Uml::AssociationRole> > __thiscall Uml::Association::AssociationRole_kind_children(void)const )
                  ?AssociationTargetRoles@Uml@@YA?AV?$set@VAssociationRole@Uml@@U?$less@VAssociationRole@Uml@@@std@@V?$allocator@VAssociationRole@Uml@@@4@@std@@ABVClass@1@@Z (class std::set<class Uml::AssociationRole,struct std::less<class Uml::AssociationRole>,class std::allocator<class Uml::AssociationRole> > __cdecl Uml::AssociationTargetRoles(class Uml::Class const &))
                  ?Association_kind_children@Diagram@Uml@@QBE?AV?$ChildrenAttr@VAssociation@Uml@@U?$less@VAssociation@Uml@@@std@@@Udm_VS10@@XZ (public: class Udm_VS10::ChildrenAttr<class Uml::Association,struct std::less<class Uml::Association> > __thiscall Uml::Diagram::Association_kind_children(void)const )
                  ?Association_kind_children@Namespace@Uml@@QBE?AV?$ChildrenAttr@VAssociation@Uml@@U?$less@VAssociation@Uml@@@std@@@Udm_VS10@@XZ (public: class Udm_VS10::ChildrenAttr<class Uml::Association,struct std::less<class Uml::Association> > __thiscall Uml::Namespace::Association_kind_children(void)const )
                  ?AttachLibrary@Object@Udm_VS10@@UAE?AV12@ABV12@ABV?$basic_string@DU?$char_traits@D@std@@V?$allocator@D@2@@std@@PAV?$map@VObject@Udm_VS10@@V12@U?$less@VObject@Udm_VS10@@@std@@V?$allocator@U?$pair@$$CBVObject@Udm_VS10@@V12@@std@@@4@@4@@Z (public: virtual class Udm_VS10::Object __thiscall Udm_VS10::Object::AttachLibrary(class Udm_VS10::Object const &,class std::basic_string<char,struct std::char_traits<char>,class std::allocator<char> > const &,class std::map<class Udm_VS10::Object,class Udm_VS10::Object,struct std::less<class Udm_VS10::Object>,class std::allocator<struct std::pair<class Udm_VS10::Object const ,class Udm_VS10::Object> > > *))
                  ?AttachLibrary@ObjectImpl@Udm_VS10@@UAEPAV12@PAV12@ABV?$basic_string@DU?$char_traits@D@std@@V?$allocator@D@2@@std@@PAV?$map@PAVObjectImpl@Udm_VS10@@PAV12@U?$less@PAVObjectImpl@Udm_VS10@@@std@@V?$allocator@U?$pair@QAVObjectImpl@Udm_VS10@@PAV12@@std@@@4@@4@@Z (public: virtual class Udm_VS10::ObjectImpl * __thiscall Udm_VS10::ObjectImpl::AttachLibrary(class Udm_VS10::ObjectImpl *,class std::basic_string<char,struct std::char_traits<char>,class std::allocator<char> > const &,class std::map<class Udm_VS10::ObjectImpl *,class Udm_VS10::ObjectImpl *,struct std::less<class Udm_VS10::ObjectImpl *>,class std::allocator<struct std::pair<class Udm_VS10::ObjectImpl * const,class Udm_VS10::ObjectImpl *> > > *))
                  ?Attribute_kind_children@Class@Uml@@QBE?AV?$ChildrenAttr@VAttribute@Uml@@U?$less@VAttribute@Uml@@@std@@@Udm_VS10@@XZ (public: class Udm_VS10::ChildrenAttr<class Uml::Attribute,struct std::less<class Uml::Attribute> > __thiscall Uml::Class::Attribute_kind_children(void)const )
                  ?Cast@Association@Uml@@SA?AV12@$$QAVObject@Udm_VS10@@@Z (public: static class Uml::Association __cdecl Uml::Association::Cast(class Udm_VS10::Object &&))
                  ?Cast@Association@Uml@@SA?AV12@ABVObject@Udm_VS10@@@Z (public: static class Uml::Association __cdecl Uml::Association::Cast(class Udm_VS10::Object const &))
                  ?Cast@AssociationRole@Uml@@SA?AV12@$$QAVObject@Udm_VS10@@@Z (public: static class Uml::AssociationRole __cdecl Uml::AssociationRole::Cast(class Udm_VS10::Object &&))
                  ?Cast@AssociationRole@Uml@@SA?AV12@ABVObject@Udm_VS10@@@Z (public: static class Uml::AssociationRole __cdecl Uml::AssociationRole::Cast(class Udm_VS10::Object const &))
                  ?Cast@Attribute@Uml@@SA?AV12@$$QAVObject@Udm_VS10@@@Z (public: static class Uml::Attribute __cdecl Uml::Attribute::Cast(class Udm_VS10::Object &&))
                  ?Cast@Attribute@Uml@@SA?AV12@ABVObject@Udm_VS10@@@Z (public: static class Uml::Attribute __cdecl Uml::Attribute::Cast(class Udm_VS10::Object const &))
                  ?Cast@Class@Uml@@SA?AV12@$$QAVObject@Udm_VS10@@@Z (public: static class Uml::Class __cdecl Uml::Class::Cast(class Udm_VS10::Object &&))
                  ?Cast@Class@Uml@@SA?AV12@ABVObject@Udm_VS10@@@Z (public: static class Uml::Class __cdecl Uml::Class::Cast(class Udm_VS10::Object const &))
                  ?Cast@Composition@Uml@@SA?AV12@$$QAVObject@Udm_VS10@@@Z (public: static class Uml::Composition __cdecl Uml::Composition::Cast(class Udm_VS10::Object &&))
                  ?Cast@Composition@Uml@@SA?AV12@ABVObject@Udm_VS10@@@Z (public: static class Uml::Composition __cdecl Uml::Composition::Cast(class Udm_VS10::Object const &))
                  ?Cast@CompositionChildRole@Uml@@SA?AV12@$$QAVObject@Udm_VS10@@@Z (public: static class Uml::CompositionChildRole __cdecl Uml::CompositionChildRole::Cast(class Udm_VS10::Object &&))
                  ?Cast@CompositionChildRole@Uml@@SA?AV12@ABVObject@Udm_VS10@@@Z (public: static class Uml::CompositionChildRole __cdecl Uml::CompositionChildRole::Cast(class Udm_VS10::Object const &))
                  ?Cast@CompositionParentRole@Uml@@SA?AV12@$$QAVObject@Udm_VS10@@@Z (public: static class Uml::CompositionParentRole __cdecl Uml::CompositionParentRole::Cast(class Udm_VS10::Object &&))
                  ?Cast@CompositionParentRole@Uml@@SA?AV12@ABVObject@Udm_VS10@@@Z (public: static class Uml::CompositionParentRole __cdecl Uml::CompositionParentRole::Cast(class Udm_VS10::Object const &))
                  ?Cast@Constraint@Uml@@SA?AV12@$$QAVObject@Udm_VS10@@@Z (public: static class Uml::Constraint __cdecl Uml::Constraint::Cast(class Udm_VS10::Object &&))
                  ?Cast@Constraint@Uml@@SA?AV12@ABVObject@Udm_VS10@@@Z (public: static class Uml::Constraint __cdecl Uml::Constraint::Cast(class Udm_VS10::Object const &))
                  ?Cast@ConstraintDefinition@Uml@@SA?AV12@$$QAVObject@Udm_VS10@@@Z (public: static class Uml::ConstraintDefinition __cdecl Uml::ConstraintDefinition::Cast(class Udm_VS10::Object &&))
                  ?Cast@ConstraintDefinition@Uml@@SA?AV12@ABVObject@Udm_VS10@@@Z (public: static class Uml::ConstraintDefinition __cdecl Uml::ConstraintDefinition::Cast(class Udm_VS10::Object const &))
                  ?Cast@Diagram@Uml@@SA?AV12@$$QAVObject@Udm_VS10@@@Z (public: static class Uml::Diagram __cdecl Uml::Diagram::Cast(class Udm_VS10::Object &&))
                  ?Cast@Diagram@Uml@@SA?AV12@ABVObject@Udm_VS10@@@Z (public: static class Uml::Diagram __cdecl Uml::Diagram::Cast(class Udm_VS10::Object const &))
                  ?Cast@GenericRole@Uml@@SA?AV12@$$QAVObject@Udm_VS10@@@Z (public: static class Uml::GenericRole __cdecl Uml::GenericRole::Cast(class Udm_VS10::Object &&))
                  ?Cast@GenericRole@Uml@@SA?AV12@ABVObject@Udm_VS10@@@Z (public: static class Uml::GenericRole __cdecl Uml::GenericRole::Cast(class Udm_VS10::Object const &))
                  ?Cast@Namespace@Uml@@SA?AV12@$$QAVObject@Udm_VS10@@@Z (public: static class Uml::Namespace __cdecl Uml::Namespace::Cast(class Udm_VS10::Object &&))
                  ?Cast@Namespace@Uml@@SA?AV12@ABVObject@Udm_VS10@@@Z (public: static class Uml::Namespace __cdecl Uml::Namespace::Cast(class Udm_VS10::Object const &))
                  ?Cast@Object@Udm_VS10@@SA?AV12@ABV12@@Z (public: static class Udm_VS10::Object __cdecl Udm_VS10::Object::Cast(class Udm_VS10::Object const &))
                  ?Cast@Object@Udm_VS10@@SA?AV12@ABV12@ABVClass@Uml@@@Z (public: static class Udm_VS10::Object __cdecl Udm_VS10::Object::Cast(class Udm_VS10::Object const &,class Uml::Class const &))
                  ?Cast@TaggedValue@Uml@@SA?AV12@$$QAVObject@Udm_VS10@@@Z (public: static class Uml::TaggedValue __cdecl Uml::TaggedValue::Cast(class Udm_VS10::Object &&))
                  ?Cast@TaggedValue@Uml@@SA?AV12@ABVObject@Udm_VS10@@@Z (public: static class Uml::TaggedValue __cdecl Uml::TaggedValue::Cast(class Udm_VS10::Object const &))
                  ?Check@Evaluator@Ocl@@QBE?AW4EEvaluationResult@2@ABUSEvaluationOptions@2@@Z (public: enum Ocl::EEvaluationResult __thiscall Ocl::Evaluator::Check(struct Ocl::SEvaluationOptions const &)const )
                  ?CheckAttributeOrdering@Udm_VS10@@YA_NABVAttribute@Uml@@@Z (bool __cdecl Udm_VS10::CheckAttributeOrdering(class Uml::Attribute const &))
                  ?Class_kind_children@Diagram@Uml@@QBE?AV?$ChildrenAttr@VClass@Uml@@U?$less@VClass@Uml@@@std@@@Udm_VS10@@XZ (public: class Udm_VS10::ChildrenAttr<class Uml::Class,struct std::less<class Uml::Class> > __thiscall Uml::Diagram::Class_kind_children(void)const )
                  ?Class_kind_children@Namespace@Uml@@QBE?AV?$ChildrenAttr@VClass@Uml@@U?$less@VClass@Uml@@@std@@@Udm_VS10@@XZ (public: class Udm_VS10::ChildrenAttr<class Uml::Class,struct std::less<class Uml::Class> > __thiscall Uml::Namespace::Class_kind_children(void)const )
                  ?ClearURIToUMLNamespaceMappings@UdmDom@@YAXXZ (void __cdecl UdmDom::ClearURIToUMLNamespaceMappings(void))
                  ?Close@StaticUdmProject@Udm_VS10@@QAEXXZ (public: void __thiscall Udm_VS10::StaticUdmProject::Close(void))
                  ?CloseAs@GmeDataNetwork@UdmGme@@UAEXV?$basic_string@DU?$char_traits@D@std@@V?$allocator@D@2@@std@@@Z (public: virtual void __thiscall UdmGme::GmeDataNetwork::CloseAs(class std::basic_string<char,struct std::char_traits<char>,class std::allocator<char> >))
                  ?CloseAs@StaticDataNetwork@UdmStatic@@UAEXV?$basic_string@DU?$char_traits@D@std@@V?$allocator@D@2@@std@@@Z (public: virtual void __thiscall UdmStatic::StaticDataNetwork::CloseAs(class std::basic_string<char,struct std::char_traits<char>,class std::allocator<char> >))
                  ?CloseNoUpdate@DomDataNetwork@UdmDom@@UAEXXZ (public: virtual void __thiscall UdmDom::DomDataNetwork::CloseNoUpdate(void))
                  ?CloseNoUpdate@GmeDataNetwork@UdmGme@@UAEXXZ (public: virtual void __thiscall UdmGme::GmeDataNetwork::CloseNoUpdate(void))
                  ?CloseNoUpdate@StaticDataNetwork@UdmStatic@@UAEXXZ (public: virtual void __thiscall UdmStatic::StaticDataNetwork::CloseNoUpdate(void))
                  ?CloseWithUpdate@DomDataNetwork@UdmDom@@UAEXXZ (public: virtual void __thiscall UdmDom::DomDataNetwork::CloseWithUpdate(void))
                  ?CloseWithUpdate@GmeDataNetwork@UdmGme@@UAEXXZ (public: virtual void __thiscall UdmGme::GmeDataNetwork::CloseWithUpdate(void))
                  ?CloseWithUpdate@StaticDataNetwork@UdmStatic@@UAEXXZ (public: virtual void __thiscall UdmStatic::StaticDataNetwork::CloseWithUpdate(void))
                  ?CommitEditSequence@DomDataNetwork@UdmDom@@UAEXXZ (public: virtual void __thiscall UdmDom::DomDataNetwork::CommitEditSequence(void))
                  ?CommitEditSequence@GmeDataNetwork@UdmGme@@UAEXXZ (public: virtual void __thiscall UdmGme::GmeDataNetwork::CommitEditSequence(void))
                  ?CommitEditSequence@StaticDataNetwork@UdmStatic@@UAEXXZ (public: virtual void __thiscall UdmStatic::StaticDataNetwork::CommitEditSequence(void))
                  ?CommonAncestorClasses@Uml@@YA?AV?$set@VClass@Uml@@U?$less@VClass@Uml@@@std@@V?$allocator@VClass@Uml@@@4@@std@@ABV23@@Z (class std::set<class Uml::Class,struct std::less<class Uml::Class>,class std::allocator<class Uml::Class> > __cdecl Uml::CommonAncestorClasses(class std::set<class Uml::Class,struct std::less<class Uml::Class>,class std::allocator<class Uml::Class> > const &))
                  ?CompositionChildRole_kind_children@Composition@Uml@@QBE?AV?$ChildrenAttr@VCompositionChildRole@Uml@@U?$less@VCompositionChildRole@Uml@@@std@@@Udm_VS10@@XZ (public: class Udm_VS10::ChildrenAttr<class Uml::CompositionChildRole,struct std::less<class Uml::CompositionChildRole> > __thiscall Uml::Composition::CompositionChildRole_kind_children(void)const )
                  ?CompositionParentRole_kind_children@Composition@Uml@@QBE?AV?$ChildrenAttr@VCompositionParentRole@Uml@@U?$less@VCompositionParentRole@Uml@@@std@@@Udm_VS10@@XZ (public: class Udm_VS10::ChildrenAttr<class Uml::CompositionParentRole,struct std::less<class Uml::CompositionParentRole> > __thiscall Uml::Composition::CompositionParentRole_kind_children(void)const )
                  ?CompositionPeerChildRoles@Uml@@YA?AV?$set@VCompositionChildRole@Uml@@U?$less@VCompositionChildRole@Uml@@@std@@V?$allocator@VCompositionChildRole@Uml@@@4@@std@@ABVClass@1@@Z (class std::set<class Uml::CompositionChildRole,struct std::less<class Uml::CompositionChildRole>,class std::allocator<class Uml::CompositionChildRole> > __cdecl Uml::CompositionPeerChildRoles(class Uml::Class const &))
                  ?CompositionPeerParentRoles@Uml@@YA?AV?$set@VCompositionParentRole@Uml@@U?$less@VCompositionParentRole@Uml@@@std@@V?$allocator@VCompositionParentRole@Uml@@@4@@std@@ABVClass@1@@Z (class std::set<class Uml::CompositionParentRole,struct std::less<class Uml::CompositionParentRole>,class std::allocator<class Uml::CompositionParentRole> > __cdecl Uml::CompositionPeerParentRoles(class Uml::Class const &))
                  ?Composition_kind_children@Diagram@Uml@@QBE?AV?$ChildrenAttr@VComposition@Uml@@U?$less@VComposition@Uml@@@std@@@Udm_VS10@@XZ (public: class Udm_VS10::ChildrenAttr<class Uml::Composition,struct std::less<class Uml::Composition> > __thiscall Uml::Diagram::Composition_kind_children(void)const )
                  ?Composition_kind_children@Namespace@Uml@@QBE?AV?$ChildrenAttr@VComposition@Uml@@U?$less@VComposition@Uml@@@std@@@Udm_VS10@@XZ (public: class Udm_VS10::ChildrenAttr<class Uml::Composition,struct std::less<class Uml::Composition> > __thiscall Uml::Namespace::Composition_kind_children(void)const )
                  ?ConstraintDefinition_kind_children@Class@Uml@@QBE?AV?$ChildrenAttr@VConstraintDefinition@Uml@@U?$less@VConstraintDefinition@Uml@@@std@@@Udm_VS10@@XZ (public: class Udm_VS10::ChildrenAttr<class Uml::ConstraintDefinition,struct std::less<class Uml::ConstraintDefinition> > __thiscall Uml::Class::ConstraintDefinition_kind_children(void)const )
                  ?Constraint_kind_children@Class@Uml@@QBE?AV?$ChildrenAttr@VConstraint@Uml@@U?$less@VConstraint@Uml@@@std@@@Udm_VS10@@XZ (public: class Udm_VS10::ChildrenAttr<class Uml::Constraint,struct std::less<class Uml::Constraint> > __thiscall Uml::Class::Constraint_kind_children(void)const )
                  ?ContainedClasses@Uml@@YA?AV?$set@VClass@Uml@@U?$less@VClass@Uml@@@std@@V?$allocator@VClass@Uml@@@4@@std@@ABVClass@1@@Z (class std::set<class Uml::Class,struct std::less<class Uml::Class>,class std::allocator<class Uml::Class> > __cdecl Uml::ContainedClasses(class Uml::Class const &))
                  ?ContainerClasses@Uml@@YA?AV?$set@VClass@Uml@@U?$less@VClass@Uml@@@std@@V?$allocator@VClass@Uml@@@4@@std@@ABVClass@1@@Z (class std::set<class Uml::Class,struct std::less<class Uml::Class>,class std::allocator<class Uml::Class> > __cdecl Uml::ContainerClasses(class Uml::Class const &))
                  ?CopyAttributeFrom@ObjectImpl@Udm_VS10@@QAEXABVAttribute@Uml@@PBV12@_N@Z (public: void __thiscall Udm_VS10::ObjectImpl::CopyAttributeFrom(class Uml::Attribute const &,class Udm_VS10::ObjectImpl const *,bool))
                  ?CopyAttributeFromArchetype@ObjectImpl@Udm_VS10@@QAEXABVAttribute@Uml@@@Z (public: void __thiscall Udm_VS10::ObjectImpl::CopyAttributeFromArchetype(class Uml::Attribute const &))
                  ?CopyAttributesFrom@ObjectImpl@Udm_VS10@@QAEXPBV12@_N@Z (public: void __thiscall Udm_VS10::ObjectImpl::CopyAttributesFrom(class Udm_VS10::ObjectImpl const *,bool))
                  ?CopyAttributesFromArchetype@ObjectImpl@Udm_VS10@@QAEXXZ (public: void __thiscall Udm_VS10::ObjectImpl::CopyAttributesFromArchetype(void))
                  ?CopyFrom@cint_string@@QAE_NPBD@Z (public: bool __thiscall cint_string::CopyFrom(char const *))
                  ?CopyObjectHierarchy@UdmUtil@@YAHPAVObjectImpl@Udm_VS10@@0PAVDataNetwork@3@AAV?$map@VObject@Udm_VS10@@V12@U?$less@VObject@Udm_VS10@@@std@@V?$allocator@U?$pair@$$CBVObject@Udm_VS10@@V12@@std@@@4@@std@@ABUCopyOpts@1@@Z (int __cdecl UdmUtil::CopyObjectHierarchy(class Udm_VS10::ObjectImpl *,class Udm_VS10::ObjectImpl *,class Udm_VS10::DataNetwork *,class std::map<class Udm_VS10::Object,class Udm_VS10::Object,struct std::less<class Udm_VS10::Object>,class std::allocator<struct std::pair<class Udm_VS10::Object const ,class Udm_VS10::Object> > > &,struct UdmUtil::CopyOpts const &))
                  ?Create@Association@Uml@@SA?AV12@ABVObject@Udm_VS10@@ABVCompositionChildRole@2@@Z (public: static class Uml::Association __cdecl Uml::Association::Create(class Udm_VS10::Object const &,class Uml::CompositionChildRole const &))
                  ?Create@AssociationRole@Uml@@SA?AV12@ABVObject@Udm_VS10@@ABVCompositionChildRole@2@@Z (public: static class Uml::AssociationRole __cdecl Uml::AssociationRole::Create(class Udm_VS10::Object const &,class Uml::CompositionChildRole const &))
                  ?Create@Attribute@Uml@@SA?AV12@ABVObject@Udm_VS10@@ABVCompositionChildRole@2@@Z (public: static class Uml::Attribute __cdecl Uml::Attribute::Create(class Udm_VS10::Object const &,class Uml::CompositionChildRole const &))
                  ?Create@Class@Uml@@SA?AV12@ABVObject@Udm_VS10@@ABVCompositionChildRole@2@@Z (public: static class Uml::Class __cdecl Uml::Class::Create(class Udm_VS10::Object const &,class Uml::CompositionChildRole const &))
                  ?Create@Composition@Uml@@SA?AV12@ABVObject@Udm_VS10@@ABVCompositionChildRole@2@@Z (public: static class Uml::Composition __cdecl Uml::Composition::Create(class Udm_VS10::Object const &,class Uml::CompositionChildRole const &))
                  ?Create@CompositionChildRole@Uml@@SA?AV12@ABVObject@Udm_VS10@@ABV12@@Z (public: static class Uml::CompositionChildRole __cdecl Uml::CompositionChildRole::Create(class Udm_VS10::Object const &,class Uml::CompositionChildRole const &))
                  ?Create@CompositionParentRole@Uml@@SA?AV12@ABVObject@Udm_VS10@@ABVCompositionChildRole@2@@Z (public: static class Uml::CompositionParentRole __cdecl Uml::CompositionParentRole::Create(class Udm_VS10::Object const &,class Uml::CompositionChildRole const &))
                  ?Create@Constraint@Uml@@SA?AV12@ABVObject@Udm_VS10@@ABVCompositionChildRole@2@@Z (public: static class Uml::Constraint __cdecl Uml::Constraint::Create(class Udm_VS10::Object const &,class Uml::CompositionChildRole const &))
                  ?Create@ConstraintDefinition@Uml@@SA?AV12@ABVObject@Udm_VS10@@ABVCompositionChildRole@2@@Z (public: static class Uml::ConstraintDefinition __cdecl Uml::ConstraintDefinition::Create(class Udm_VS10::Object const &,class Uml::CompositionChildRole const &))
                  ?Create@Diagram@Uml@@SA?AV12@ABVObject@Udm_VS10@@ABVCompositionChildRole@2@@Z (public: static class Uml::Diagram __cdecl Uml::Diagram::Create(class Udm_VS10::Object const &,class Uml::CompositionChildRole const &))
                  ?Create@GenericRole@Uml@@SA?AV12@ABVObject@Udm_VS10@@ABVCompositionChildRole@2@@Z (public: static class Uml::GenericRole __cdecl Uml::GenericRole::Create(class Udm_VS10::Object const &,class Uml::CompositionChildRole const &))
                  ?Create@Namespace@Uml@@SA?AV12@ABVObject@Udm_VS10@@ABVCompositionChildRole@2@@Z (public: static class Uml::Namespace __cdecl Uml::Namespace::Create(class Udm_VS10::Object const &,class Uml::CompositionChildRole const &))
                  ?Create@Object@Udm_VS10@@SA?AV12@ABVClass@Uml@@ABV12@ABVCompositionChildRole@4@PBVObjectImpl@2@_N@Z (public: static class Udm_VS10::Object __cdecl Udm_VS10::Object::Create(class Uml::Class const &,class Udm_VS10::Object const &,class Uml::CompositionChildRole const &,class Udm_VS10::ObjectImpl const *,bool))
                  ?Create@TaggedValue@Uml@@SA?AV12@ABVObject@Udm_VS10@@ABVCompositionChildRole@2@@Z (public: static class Uml::TaggedValue __cdecl Uml::TaggedValue::Create(class Udm_VS10::Object const &,class Uml::CompositionChildRole const &))
                  ?CreateAssociation@Uml@@YA?AVAssociation@1@XZ (class Uml::Association __cdecl Uml::CreateAssociation(void))
                  ?CreateAssociationRole@Uml@@YA?AVAssociationRole@1@XZ (class Uml::AssociationRole __cdecl Uml::CreateAssociationRole(void))
                  ?CreateAttribute@Uml@@YA?AVAttribute@1@XZ (class Uml::Attribute __cdecl Uml::CreateAttribute(void))
                  ?CreateBackend@DataNetwork@Udm_VS10@@SAPAV12@V?$basic_string@DU?$char_traits@D@std@@V?$allocator@D@2@@std@@ABUUdmDiagram@2@PAVUdmProject@2@@Z (public: static class Udm_VS10::DataNetwork * __cdecl Udm_VS10::DataNetwork::CreateBackend(class std::basic_string<char,struct std::char_traits<char>,class std::allocator<char> >,struct Udm_VS10::UdmDiagram const &,class Udm_VS10::UdmProject *))
                  ?CreateClass@Uml@@YA?AVClass@1@XZ (class Uml::Class __cdecl Uml::CreateClass(void))
                  ?CreateComposition@Uml@@YA?AVComposition@1@XZ (class Uml::Composition __cdecl Uml::CreateComposition(void))
                  ?CreateCompositionChildRole@Uml@@YA?AVCompositionChildRole@1@XZ (class Uml::CompositionChildRole __cdecl Uml::CreateCompositionChildRole(void))
                  ?CreateCompositionParentRole@Uml@@YA?AVCompositionParentRole@1@XZ (class Uml::CompositionParentRole __cdecl Uml::CreateCompositionParentRole(void))
                  ?CreateConstraint@Uml@@YA?AVConstraint@1@XZ (class Uml::Constraint __cdecl Uml::CreateConstraint(void))
                  ?CreateConstraintDefinition@Uml@@YA?AVConstraintDefinition@1@XZ (class Uml::ConstraintDefinition __cdecl Uml::CreateConstraintDefinition(void))
                  ?CreateDerived@Association@Uml@@QAE?AV12@ABVObject@Udm_VS10@@ABVCompositionChildRole@2@@Z (public: class Uml::Association __thiscall Uml::Association::CreateDerived(class Udm_VS10::Object const &,class Uml::CompositionChildRole const &))
                  ?CreateDerived@AssociationRole@Uml@@QAE?AV12@ABVObject@Udm_VS10@@ABVCompositionChildRole@2@@Z (public: class Uml::AssociationRole __thiscall Uml::AssociationRole::CreateDerived(class Udm_VS10::Object const &,class Uml::CompositionChildRole const &))
                  ?CreateDerived@Attribute@Uml@@QAE?AV12@ABVObject@Udm_VS10@@ABVCompositionChildRole@2@@Z (public: class Uml::Attribute __thiscall Uml::Attribute::CreateDerived(class Udm_VS10::Object const &,class Uml::CompositionChildRole const &))
                  ?CreateDerived@Class@Uml@@QAE?AV12@ABVObject@Udm_VS10@@ABVCompositionChildRole@2@@Z (public: class Uml::Class __thiscall Uml::Class::CreateDerived(class Udm_VS10::Object const &,class Uml::CompositionChildRole const &))
                  ?CreateDerived@Composition@Uml@@QAE?AV12@ABVObject@Udm_VS10@@ABVCompositionChildRole@2@@Z (public: class Uml::Composition __thiscall Uml::Composition::CreateDerived(class Udm_VS10::Object const &,class Uml::CompositionChildRole const &))
                  ?CreateDerived@CompositionChildRole@Uml@@QAE?AV12@ABVObject@Udm_VS10@@ABV12@@Z (public: class Uml::CompositionChildRole __thiscall Uml::CompositionChildRole::CreateDerived(class Udm_VS10::Object const &,class Uml::CompositionChildRole const &))
                  ?CreateDerived@CompositionParentRole@Uml@@QAE?AV12@ABVObject@Udm_VS10@@ABVCompositionChildRole@2@@Z (public: class Uml::CompositionParentRole __thiscall Uml::CompositionParentRole::CreateDerived(class Udm_VS10::Object const &,class Uml::CompositionChildRole const &))
                  ?CreateDerived@Constraint@Uml@@QAE?AV12@ABVObject@Udm_VS10@@ABVCompositionChildRole@2@@Z (public: class Uml::Constraint __thiscall Uml::Constraint::CreateDerived(class Udm_VS10::Object const &,class Uml::CompositionChildRole const &))
                  ?CreateDerived@ConstraintDefinition@Uml@@QAE?AV12@ABVObject@Udm_VS10@@ABVCompositionChildRole@2@@Z (public: class Uml::ConstraintDefinition __thiscall Uml::ConstraintDefinition::CreateDerived(class Udm_VS10::Object const &,class Uml::CompositionChildRole const &))
                  ?CreateDerived@Diagram@Uml@@QAE?AV12@ABVObject@Udm_VS10@@ABVCompositionChildRole@2@@Z (public: class Uml::Diagram __thiscall Uml::Diagram::CreateDerived(class Udm_VS10::Object const &,class Uml::CompositionChildRole const &))
                  ?CreateDerived@GenericRole@Uml@@QAE?AV12@ABVObject@Udm_VS10@@ABVCompositionChildRole@2@@Z (public: class Uml::GenericRole __thiscall Uml::GenericRole::CreateDerived(class Udm_VS10::Object const &,class Uml::CompositionChildRole const &))
                  ?CreateDerived@Namespace@Uml@@QAE?AV12@ABVObject@Udm_VS10@@ABVCompositionChildRole@2@@Z (public: class Uml::Namespace __thiscall Uml::Namespace::CreateDerived(class Udm_VS10::Object const &,class Uml::CompositionChildRole const &))
                  ?CreateDerived@TaggedValue@Uml@@QAE?AV12@ABVObject@Udm_VS10@@ABVCompositionChildRole@2@@Z (public: class Uml::TaggedValue __thiscall Uml::TaggedValue::CreateDerived(class Udm_VS10::Object const &,class Uml::CompositionChildRole const &))
                  ?CreateDiagram@Uml@@YA?AVDiagram@1@XZ (class Uml::Diagram __cdecl Uml::CreateDiagram(void))
                  ?CreateInstance@Association@Uml@@QAE?AV12@ABVObject@Udm_VS10@@ABVCompositionChildRole@2@@Z (public: class Uml::Association __thiscall Uml::Association::CreateInstance(class Udm_VS10::Object const &,class Uml::CompositionChildRole const &))
                  ?CreateInstance@AssociationRole@Uml@@QAE?AV12@ABVObject@Udm_VS10@@ABVCompositionChildRole@2@@Z (public: class Uml::AssociationRole __thiscall Uml::AssociationRole::CreateInstance(class Udm_VS10::Object const &,class Uml::CompositionChildRole const &))
                  ?CreateInstance@Attribute@Uml@@QAE?AV12@ABVObject@Udm_VS10@@ABVCompositionChildRole@2@@Z (public: class Uml::Attribute __thiscall Uml::Attribute::CreateInstance(class Udm_VS10::Object const &,class Uml::CompositionChildRole const &))
                  ?CreateInstance@Class@Uml@@QAE?AV12@ABVObject@Udm_VS10@@ABVCompositionChildRole@2@@Z (public: class Uml::Class __thiscall Uml::Class::CreateInstance(class Udm_VS10::Object const &,class Uml::CompositionChildRole const &))
                  ?CreateInstance@Composition@Uml@@QAE?AV12@ABVObject@Udm_VS10@@ABVCompositionChildRole@2@@Z (public: class Uml::Composition __thiscall Uml::Composition::CreateInstance(class Udm_VS10::Object const &,class Uml::CompositionChildRole const &))
                  ?CreateInstance@CompositionChildRole@Uml@@QAE?AV12@ABVObject@Udm_VS10@@ABV12@@Z (public: class Uml::CompositionChildRole __thiscall Uml::CompositionChildRole::CreateInstance(class Udm_VS10::Object const &,class Uml::CompositionChildRole const &))
                  ?CreateInstance@CompositionParentRole@Uml@@QAE?AV12@ABVObject@Udm_VS10@@ABVCompositionChildRole@2@@Z (public: class Uml::CompositionParentRole __thiscall Uml::CompositionParentRole::CreateInstance(class Udm_VS10::Object const &,class Uml::CompositionChildRole const &))
                  ?CreateInstance@Constraint@Uml@@QAE?AV12@ABVObject@Udm_VS10@@ABVCompositionChildRole@2@@Z (public: class Uml::Constraint __thiscall Uml::Constraint::CreateInstance(class Udm_VS10::Object const &,class Uml::CompositionChildRole const &))
                  ?CreateInstance@ConstraintDefinition@Uml@@QAE?AV12@ABVObject@Udm_VS10@@ABVCompositionChildRole@2@@Z (public: class Uml::ConstraintDefinition __thiscall Uml::ConstraintDefinition::CreateInstance(class Udm_VS10::Object const &,class Uml::CompositionChildRole const &))
                  ?CreateInstance@Diagram@Uml@@QAE?AV12@ABVObject@Udm_VS10@@ABVCompositionChildRole@2@@Z (public: class Uml::Diagram __thiscall Uml::Diagram::CreateInstance(class Udm_VS10::Object const &,class Uml::CompositionChildRole const &))
                  ?CreateInstance@GenericRole@Uml@@QAE?AV12@ABVObject@Udm_VS10@@ABVCompositionChildRole@2@@Z (public: class Uml::GenericRole __thiscall Uml::GenericRole::CreateInstance(class Udm_VS10::Object const &,class Uml::CompositionChildRole const &))
                  ?CreateInstance@Namespace@Uml@@QAE?AV12@ABVObject@Udm_VS10@@ABVCompositionChildRole@2@@Z (public: class Uml::Namespace __thiscall Uml::Namespace::CreateInstance(class Udm_VS10::Object const &,class Uml::CompositionChildRole const &))
                  ?CreateInstance@TaggedValue@Uml@@QAE?AV12@ABVObject@Udm_VS10@@ABVCompositionChildRole@2@@Z (public: class Uml::TaggedValue __thiscall Uml::TaggedValue::CreateInstance(class Udm_VS10::Object const &,class Uml::CompositionChildRole const &))
                  ?CreateLink@Object@Udm_VS10@@QAE_NV12@ABUAssociationInfo@12@_N@Z (public: bool __thiscall Udm_VS10::Object::CreateLink(class Udm_VS10::Object,struct Udm_VS10::Object::AssociationInfo const &,bool))
                  ?CreateNamespace@Uml@@YA?AVNamespace@1@XZ (class Uml::Namespace __cdecl Uml::CreateNamespace(void))
                  ?CreateNew@DomDataNetwork@UdmDom@@UAEXABV?$basic_string@DU?$char_traits@D@std@@V?$allocator@D@2@@std@@0ABVClass@Uml@@W4BackendSemantics@Udm_VS10@@@Z (public: virtual void __thiscall UdmDom::DomDataNetwork::CreateNew(class std::basic_string<char,struct std::char_traits<char>,class std::allocator<char> > const &,class std::basic_string<char,struct std::char_traits<char>,class std::allocator<char> > const &,class Uml::Class const &,enum Udm_VS10::BackendSemantics))
                  ?CreateNew@GmeDataNetwork@UdmGme@@UAEXABV?$basic_string@DU?$char_traits@D@std@@V?$allocator@D@2@@std@@0ABVClass@Uml@@W4BackendSemantics@Udm_VS10@@@Z (public: virtual void __thiscall UdmGme::GmeDataNetwork::CreateNew(class std::basic_string<char,struct std::char_traits<char>,class std::allocator<char> > const &,class std::basic_string<char,struct std::char_traits<char>,class std::allocator<char> > const &,class Uml::Class const &,enum Udm_VS10::BackendSemantics))
                  ?CreateNew@StaticDataNetwork@UdmStatic@@UAEXABV?$basic_string@DU?$char_traits@D@std@@V?$allocator@D@2@@std@@0ABVClass@Uml@@W4BackendSemantics@Udm_VS10@@@Z (public: virtual void __thiscall UdmStatic::StaticDataNetwork::CreateNew(class std::basic_string<char,struct std::char_traits<char>,class std::allocator<char> > const &,class std::basic_string<char,struct std::char_traits<char>,class std::allocator<char> > const &,class Uml::Class const &,enum Udm_VS10::BackendSemantics))
                  ?CreateNew@UdmProject@Udm_VS10@@UAEXABV?$basic_string@DU?$char_traits@D@std@@V?$allocator@D@2@@std@@V?$vector@VDataNetworkSpecifier@Udm_VS10@@V?$allocator@VDataNetworkSpecifier@Udm_VS10@@@std@@@4@ABUUdmDiagram@2@W4BackendSemantics@2@@Z (public: virtual void __thiscall Udm_VS10::UdmProject::CreateNew(class std::basic_string<char,struct std::char_traits<char>,class std::allocator<char> > const &,class std::vector<class Udm_VS10::DataNetworkSpecifier,class std::allocator<class Udm_VS10::DataNetworkSpecifier> >,struct Udm_VS10::UdmDiagram const &,enum Udm_VS10::BackendSemantics))
                  ?CreateNewMeta@UdmProject@Udm_VS10@@UAEXABV?$basic_string@DU?$char_traits@D@std@@V?$allocator@D@2@@std@@0V?$vector@VDataNetworkSpecifier@Udm_VS10@@V?$allocator@VDataNetworkSpecifier@Udm_VS10@@@std@@@4@W4BackendSemantics@2@@Z (public: virtual void __thiscall Udm_VS10::UdmProject::CreateNewMeta(class std::basic_string<char,struct std::char_traits<char>,class std::allocator<char> > const &,class std::basic_string<char,struct std::char_traits<char>,class std::allocator<char> > const &,class std::vector<class Udm_VS10::DataNetworkSpecifier,class std::allocator<class Udm_VS10::DataNetworkSpecifier> >,enum Udm_VS10::BackendSemantics))
                  ?CreateNewToString@DataNetwork@Udm_VS10@@UAEXABV?$basic_string@DU?$char_traits@D@std@@V?$allocator@D@2@@std@@ABVClass@Uml@@W4BackendSemantics@2@@Z (public: virtual void __thiscall Udm_VS10::DataNetwork::CreateNewToString(class std::basic_string<char,struct std::char_traits<char>,class std::allocator<char> > const &,class Uml::Class const &,enum Udm_VS10::BackendSemantics))
                  ?CreateNewToString@DomDataNetwork@UdmDom@@UAEXABV?$basic_string@DU?$char_traits@D@std@@V?$allocator@D@2@@std@@ABVClass@Uml@@W4BackendSemantics@Udm_VS10@@@Z (public: virtual void __thiscall UdmDom::DomDataNetwork::CreateNewToString(class std::basic_string<char,struct std::char_traits<char>,class std::allocator<char> > const &,class Uml::Class const &,enum Udm_VS10::BackendSemantics))
                  ?CreateObject@Object@Udm_VS10@@QAE?AV12@ABVClass@Uml@@ABUCompositionInfo@12@ABV12@_N@Z (public: class Udm_VS10::Object __thiscall Udm_VS10::Object::CreateObject(class Uml::Class const &,struct Udm_VS10::Object::CompositionInfo const &,class Udm_VS10::Object const &,bool))
                  ?CreateObject@Object@Udm_VS10@@QAE?AV12@ABVClass@Uml@@ABV12@_N@Z (public: class Udm_VS10::Object __thiscall Udm_VS10::Object::CreateObject(class Uml::Class const &,class Udm_VS10::Object const &,bool))
                  ?CreateObject@UdmStatic@@YA?AVObject@Udm_VS10@@ABVClass@Uml@@@Z (class Udm_VS10::Object __cdecl UdmStatic::CreateObject(class Uml::Class const &))
                  ?CreateSmartDataNetwork@Udm_VS10@@YAPAVDataNetwork@1@ABUUdmDiagram@1@PAVUdmProject@1@@Z (class Udm_VS10::DataNetwork * __cdecl Udm_VS10::CreateSmartDataNetwork(struct Udm_VS10::UdmDiagram const &,class Udm_VS10::UdmProject *))
                  ?DTDPath@DomDataNetwork@UdmDom@@2V?$basic_string@DU?$char_traits@D@std@@V?$allocator@D@2@@std@@A (public: static class std::basic_string<char,struct std::char_traits<char>,class std::allocator<char> > UdmDom::DomDataNetwork::DTDPath)
                  ?DefCopyOpts@UdmUtil@@3UCopyOpts@1@B (struct UdmUtil::CopyOpts const UdmUtil::DefCopyOpts)
                  ?DeleteLink@Object@Udm_VS10@@QAE_NV12@ABUAssociationInfo@12@@Z (public: bool __thiscall Udm_VS10::Object::DeleteLink(class Udm_VS10::Object,struct Udm_VS10::Object::AssociationInfo const &))
                  ?DeleteObject@Object@Udm_VS10@@QAEXXZ (public: void __thiscall Udm_VS10::Object::DeleteObject(void))
                  ?Derived@Association@Uml@@QAE?AV?$DerivedAttr@VAssociation@Uml@@U?$less@VAssociation@Uml@@@std@@@Udm_VS10@@XZ (public: class Udm_VS10::DerivedAttr<class Uml::Association,struct std::less<class Uml::Association> > __thiscall Uml::Association::Derived(void))
                  ?Derived@AssociationRole@Uml@@QAE?AV?$DerivedAttr@VAssociationRole@Uml@@U?$less@VAssociationRole@Uml@@@std@@@Udm_VS10@@XZ (public: class Udm_VS10::DerivedAttr<class Uml::AssociationRole,struct std::less<class Uml::AssociationRole> > __thiscall Uml::AssociationRole::Derived(void))
                  ?Derived@Attribute@Uml@@QAE?AV?$DerivedAttr@VAttribute@Uml@@U?$less@VAttribute@Uml@@@std@@@Udm_VS10@@XZ (public: class Udm_VS10::DerivedAttr<class Uml::Attribute,struct std::less<class Uml::Attribute> > __thiscall Uml::Attribute::Derived(void))
                  ?Derived@Class@Uml@@QAE?AV?$DerivedAttr@VClass@Uml@@U?$less@VClass@Uml@@@std@@@Udm_VS10@@XZ (public: class Udm_VS10::DerivedAttr<class Uml::Class,struct std::less<class Uml::Class> > __thiscall Uml::Class::Derived(void))
                  ?Derived@Composition@Uml@@QAE?AV?$DerivedAttr@VComposition@Uml@@U?$less@VComposition@Uml@@@std@@@Udm_VS10@@XZ (public: class Udm_VS10::DerivedAttr<class Uml::Composition,struct std::less<class Uml::Composition> > __thiscall Uml::Composition::Derived(void))
                  ?Derived@CompositionChildRole@Uml@@QAE?AV?$DerivedAttr@VCompositionChildRole@Uml@@U?$less@VCompositionChildRole@Uml@@@std@@@Udm_VS10@@XZ (public: class Udm_VS10::DerivedAttr<class Uml::CompositionChildRole,struct std::less<class Uml::CompositionChildRole> > __thiscall Uml::CompositionChildRole::Derived(void))
                  ?Derived@CompositionParentRole@Uml@@QAE?AV?$DerivedAttr@VCompositionParentRole@Uml@@U?$less@VCompositionParentRole@Uml@@@std@@@Udm_VS10@@XZ (public: class Udm_VS10::DerivedAttr<class Uml::CompositionParentRole,struct std::less<class Uml::CompositionParentRole> > __thiscall Uml::CompositionParentRole::Derived(void))
                  ?Derived@Constraint@Uml@@QAE?AV?$DerivedAttr@VConstraint@Uml@@U?$less@VConstraint@Uml@@@std@@@Udm_VS10@@XZ (public: class Udm_VS10::DerivedAttr<class Uml::Constraint,struct std::less<class Uml::Constraint> > __thiscall Uml::Constraint::Derived(void))
                  ?Derived@ConstraintDefinition@Uml@@QAE?AV?$DerivedAttr@VConstraintDefinition@Uml@@U?$less@VConstraintDefinition@Uml@@@std@@@Udm_VS10@@XZ (public: class Udm_VS10::DerivedAttr<class Uml::ConstraintDefinition,struct std::less<class Uml::ConstraintDefinition> > __thiscall Uml::ConstraintDefinition::Derived(void))
                  ?Derived@Diagram@Uml@@QAE?AV?$DerivedAttr@VDiagram@Uml@@U?$less@VDiagram@Uml@@@std@@@Udm_VS10@@XZ (public: class Udm_VS10::DerivedAttr<class Uml::Diagram,struct std::less<class Uml::Diagram> > __thiscall Uml::Diagram::Derived(void))
                  ?Derived@GenericRole@Uml@@QAE?AV?$DerivedAttr@VGenericRole@Uml@@U?$less@VGenericRole@Uml@@@std@@@Udm_VS10@@XZ (public: class Udm_VS10::DerivedAttr<class Uml::GenericRole,struct std::less<class Uml::GenericRole> > __thiscall Uml::GenericRole::Derived(void))
                  ?Derived@Namespace@Uml@@QAE?AV?$DerivedAttr@VNamespace@Uml@@U?$less@VNamespace@Uml@@@std@@@Udm_VS10@@XZ (public: class Udm_VS10::DerivedAttr<class Uml::Namespace,struct std::less<class Uml::Namespace> > __thiscall Uml::Namespace::Derived(void))
                  ?Derived@TaggedValue@Uml@@QAE?AV?$DerivedAttr@VTaggedValue@Uml@@U?$less@VTaggedValue@Uml@@@std@@@Udm_VS10@@XZ (public: class Udm_VS10::DerivedAttr<class Uml::TaggedValue,struct std::less<class Uml::TaggedValue> > __thiscall Uml::TaggedValue::Derived(void))
                  ?DescendantClasses@Uml@@YA?AV?$set@VClass@Uml@@U?$less@VClass@Uml@@@std@@V?$allocator@VClass@Uml@@@4@@std@@ABVClass@1@@Z (class std::set<class Uml::Class,struct std::less<class Uml::Class>,class std::allocator<class Uml::Class> > __cdecl Uml::DescendantClasses(class Uml::Class const &))
                  ?DescendantCompositionPeerParentRoles@Uml@@YA?AV?$set@VCompositionParentRole@Uml@@U?$less@VCompositionParentRole@Uml@@@std@@V?$allocator@VCompositionParentRole@Uml@@@4@@std@@ABVClass@1@@Z (class std::set<class Uml::CompositionParentRole,struct std::less<class Uml::CompositionParentRole>,class std::allocator<class Uml::CompositionParentRole> > __cdecl Uml::DescendantCompositionPeerParentRoles(class Uml::Class const &))
                  ?DummyFL@UdmDom@@3HA (int UdmDom::DummyFL)
                  ?DummyFL@UdmGme@@3HA (int UdmGme::DummyFL)
                  ?DumpBackendNames@DataNetwork@Udm_VS10@@SA?AV?$basic_string@DU?$char_traits@D@std@@V?$allocator@D@2@@std@@XZ (public: static class std::basic_string<char,struct std::char_traits<char>,class std::allocator<char> > __cdecl Udm_VS10::DataNetwork::DumpBackendNames(void))
                  ?ExtractName@UdmUtil@@YA?AV?$basic_string@DU?$char_traits@D@std@@V?$allocator@D@2@@std@@ABVObject@Udm_VS10@@ABV23@@Z (class std::basic_string<char,struct std::char_traits<char>,class std::allocator<char> > __cdecl UdmUtil::ExtractName(class Udm_VS10::Object const &,class std::basic_string<char,struct std::char_traits<char>,class std::allocator<char> > const &))
                  ?ExtractName@UdmUtil@@YA?AV?$basic_string@DU?$char_traits@D@std@@V?$allocator@D@2@@std@@PBVObjectImpl@Udm_VS10@@ABV23@@Z (class std::basic_string<char,struct std::char_traits<char>,class std::allocator<char> > __cdecl UdmUtil::ExtractName(class Udm_VS10::ObjectImpl const *,class std::basic_string<char,struct std::char_traits<char>,class std::allocator<char> > const &))
                  ?FindClosestPrimarilyDerivedParent@Object@Udm_VS10@@QBE?AV12@XZ (public: class Udm_VS10::Object __thiscall Udm_VS10::Object::FindClosestPrimarilyDerivedParent(void)const )
                  ?FindCorrespondingObjectInInstances@Object@Udm_VS10@@QBE?AV12@ABV12@_N@Z (public: class Udm_VS10::Object __thiscall Udm_VS10::Object::FindCorrespondingObjectInInstances(class Udm_VS10::Object const &,bool)const )
                  ?FindCorrespondingObjectInInstancesTree@Object@Udm_VS10@@QBE?AV12@ABV12@_N@Z (public: class Udm_VS10::Object __thiscall Udm_VS10::Object::FindCorrespondingObjectInInstancesTree(class Udm_VS10::Object const &,bool)const )
                  ?FindCorrespondingObjectInSubtypes@Object@Udm_VS10@@QBE?AV12@ABV12@_N@Z (public: class Udm_VS10::Object __thiscall Udm_VS10::Object::FindCorrespondingObjectInSubtypes(class Udm_VS10::Object const &,bool)const )
                  ?FindCorrespondingObjectInSubtypesTree@Object@Udm_VS10@@QBE?AV12@ABV12@_N@Z (public: class Udm_VS10::Object __thiscall Udm_VS10::Object::FindCorrespondingObjectInSubtypesTree(class Udm_VS10::Object const &,bool)const )
                  ?FlattenLibrariesAndCopyObjectHierarchy@UdmUtil@@YAHAAVObject@Udm_VS10@@0PAVDataNetwork@3@AAV?$map@VObject@Udm_VS10@@V12@U?$less@VObject@Udm_VS10@@@std@@V?$allocator@U?$pair@$$CBVObject@Udm_VS10@@V12@@std@@@4@@std@@@Z (int __cdecl UdmUtil::FlattenLibrariesAndCopyObjectHierarchy(class Udm_VS10::Object &,class Udm_VS10::Object &,class Udm_VS10::DataNetwork *,class std::map<class Udm_VS10::Object,class Udm_VS10::Object,struct std::less<class Udm_VS10::Object>,class std::allocator<struct std::pair<class Udm_VS10::Object const ,class Udm_VS10::Object> > > &))
                  ?GenericRole_kind_children@Association@Uml@@QBE?AV?$ChildrenAttr@VGenericRole@Uml@@U?$less@VGenericRole@Uml@@@std@@@Udm_VS10@@XZ (public: class Udm_VS10::ChildrenAttr<class Uml::GenericRole,struct std::less<class Uml::GenericRole> > __thiscall Uml::Association::GenericRole_kind_children(void)const )
                  ?GenericRole_kind_children@Composition@Uml@@QBE?AV?$ChildrenAttr@VGenericRole@Uml@@U?$less@VGenericRole@Uml@@@std@@@Udm_VS10@@XZ (public: class Udm_VS10::ChildrenAttr<class Uml::GenericRole,struct std::less<class Uml::GenericRole> > __thiscall Uml::Composition::GenericRole_kind_children(void)const )
                  ?GetAdjacentObjects@Object@Udm_VS10@@QAE?AV?$multiset@VObject@Udm_VS10@@U?$less@VObject@Udm_VS10@@@std@@V?$allocator@VObject@Udm_VS10@@@4@@std@@ABVClass@Uml@@@Z (public: class std::multiset<class Udm_VS10::Object,struct std::less<class Udm_VS10::Object>,class std::allocator<class Udm_VS10::Object> > __thiscall Udm_VS10::Object::GetAdjacentObjects(class Uml::Class const &))
                  ?GetAdjacentObjects@Object@Udm_VS10@@QAE?AV?$multiset@VObject@Udm_VS10@@U?$less@VObject@Udm_VS10@@@std@@V?$allocator@VObject@Udm_VS10@@@4@@std@@ABVClass@Uml@@ABUAssociationInfo@12@@Z (public: class std::multiset<class Udm_VS10::Object,struct std::less<class Udm_VS10::Object>,class std::allocator<class Udm_VS10::Object> > __thiscall Udm_VS10::Object::GetAdjacentObjects(class Uml::Class const &,struct Udm_VS10::Object::AssociationInfo const &))
                  ?GetAdjacentObjects@Object@Udm_VS10@@QAE?AV?$multiset@VObject@Udm_VS10@@U?$less@VObject@Udm_VS10@@@std@@V?$allocator@VObject@Udm_VS10@@@4@@std@@XZ (public: class std::multiset<class Udm_VS10::Object,struct std::less<class Udm_VS10::Object>,class std::allocator<class Udm_VS10::Object> > __thiscall Udm_VS10::Object::GetAdjacentObjects(void))
                  ?GetAdjacentObjectsWithAssocClasses@Object@Udm_VS10@@QAE?AV?$multiset@U?$pair@VObject@Udm_VS10@@V12@@std@@U?$less@U?$pair@VObject@Udm_VS10@@V12@@std@@@2@V?$allocator@U?$pair@VObject@Udm_VS10@@V12@@std@@@2@@std@@ABVClass@Uml@@ABUAssociationInfo@12@@Z (public: class std::multiset<struct std::pair<class Udm_VS10::Object,class Udm_VS10::Object>,struct std::less<struct std::pair<class Udm_VS10::Object,class Udm_VS10::Object> >,class std::allocator<struct std::pair<class Udm_VS10::Object,class Udm_VS10::Object> > > __thiscall Udm_VS10::Object::GetAdjacentObjectsWithAssocClasses(class Uml::Class const &,struct Udm_VS10::Object::AssociationInfo const &))
                  ?GetAdjacentUniqueObjects@Object@Udm_VS10@@QAE?AV?$set@VObject@Udm_VS10@@U?$less@VObject@Udm_VS10@@@std@@V?$allocator@VObject@Udm_VS10@@@4@@std@@ABVClass@Uml@@@Z (public: class std::set<class Udm_VS10::Object,struct std::less<class Udm_VS10::Object>,class std::allocator<class Udm_VS10::Object> > __thiscall Udm_VS10::Object::GetAdjacentUniqueObjects(class Uml::Class const &))
                  ?GetAdjacentUniqueObjects@Object@Udm_VS10@@QAE?AV?$set@VObject@Udm_VS10@@U?$less@VObject@Udm_VS10@@@std@@V?$allocator@VObject@Udm_VS10@@@4@@std@@ABVClass@Uml@@ABUAssociationInfo@12@@Z (public: class std::set<class Udm_VS10::Object,struct std::less<class Udm_VS10::Object>,class std::allocator<class Udm_VS10::Object> > __thiscall Udm_VS10::Object::GetAdjacentUniqueObjects(class Uml::Class const &,struct Udm_VS10::Object::AssociationInfo const &))
                  ?GetAdjacentUniqueObjects@Object@Udm_VS10@@QAE?AV?$set@VObject@Udm_VS10@@U?$less@VObject@Udm_VS10@@@std@@V?$allocator@VObject@Udm_VS10@@@4@@std@@XZ (public: class std::set<class Udm_VS10::Object,struct std::less<class Udm_VS10::Object>,class std::allocator<class Udm_VS10::Object> > __thiscall Udm_VS10::Object::GetAdjacentUniqueObjects(void))
                  ?GetAllInstancesOf@DataNetwork@Udm_VS10@@UAE?AV?$set@VObject@Udm_VS10@@U?$less@VObject@Udm_VS10@@@std@@V?$allocator@VObject@Udm_VS10@@@4@@std@@ABVClass@Uml@@@Z (public: virtual class std::set<class Udm_VS10::Object,struct std::less<class Udm_VS10::Object>,class std::allocator<class Udm_VS10::Object> > __thiscall Udm_VS10::DataNetwork::GetAllInstancesOf(class Uml::Class const &))
                  ?GetAncestorAssociation@Uml@@YA?AVAssociation@1@ABVClass@1@@Z (class Uml::Association __cdecl Uml::GetAncestorAssociation(class Uml::Class const &))
                  ?GetAssociationClassObjects@Object@Udm_VS10@@QAE?AV?$set@VObject@Udm_VS10@@U?$less@VObject@Udm_VS10@@@std@@V?$allocator@VObject@Udm_VS10@@@4@@std@@V12@ABUAssociationInfo@12@_N@Z (public: class std::set<class Udm_VS10::Object,struct std::less<class Udm_VS10::Object>,class std::allocator<class Udm_VS10::Object> > __thiscall Udm_VS10::Object::GetAssociationClassObjects(class Udm_VS10::Object,struct Udm_VS10::Object::AssociationInfo const &,bool))
                  ?GetAssociationEnd@Object@Udm_VS10@@QAE?AV12@V?$basic_string@DU?$char_traits@D@std@@V?$allocator@D@2@@std@@@Z (public: class Udm_VS10::Object __thiscall Udm_VS10::Object::GetAssociationEnd(class std::basic_string<char,struct std::char_traits<char>,class std::allocator<char> >))
                  ?GetAssociationRoleInfo@DataNetwork@Udm_VS10@@UBE?AUAssociationRoleInfo@2@ABVAssociationRole@Uml@@@Z (public: virtual struct Udm_VS10::AssociationRoleInfo __thiscall Udm_VS10::DataNetwork::GetAssociationRoleInfo(class Uml::AssociationRole const &)const )
                  ?GetAssociationRoleInfo@GmeDataNetwork@UdmGme@@UBE?AUAssociationRoleInfo@Udm_VS10@@ABVAssociationRole@Uml@@@Z (public: virtual struct Udm_VS10::AssociationRoleInfo __thiscall UdmGme::GmeDataNetwork::GetAssociationRoleInfo(class Uml::AssociationRole const &)const )
                  ?GetAssociationRoleInfo@SmartDataNetwork@Udm_VS10@@UBE?AUAssociationRoleInfo@2@ABVAssociationRole@Uml@@@Z (public: virtual struct Udm_VS10::AssociationRoleInfo __thiscall Udm_VS10::SmartDataNetwork::GetAssociationRoleInfo(class Uml::AssociationRole const &)const )
                  ?GetBoolVal@Object@Udm_VS10@@QBE_NABVcint_string@@AAJ@Z (public: bool __thiscall Udm_VS10::Object::GetBoolVal(class cint_string const &,long &)const )
                  ?GetBoolVal@Object@Udm_VS10@@QBE_NABVcint_string@@AA_N@Z (public: bool __thiscall Udm_VS10::Object::GetBoolVal(class cint_string const &,bool &)const )
                  ?GetBoolValue@Object@Udm_VS10@@QBE_NV?$basic_string@DU?$char_traits@D@std@@V?$allocator@D@2@@std@@AA_N@Z (public: bool __thiscall Udm_VS10::Object::GetBoolValue(class std::basic_string<char,struct std::char_traits<char>,class std::allocator<char> >,bool &)const )
                  ?GetBoolValues@Object@Udm_VS10@@QBE_NV?$basic_string@DU?$char_traits@D@std@@V?$allocator@D@2@@std@@AAV?$vector@_NV?$allocator@_N@std@@@4@@Z (public: bool __thiscall Udm_VS10::Object::GetBoolValues(class std::basic_string<char,struct std::char_traits<char>,class std::allocator<char> >,class std::vector<bool,class std::allocator<bool> > &)const )
                  ?GetChildObjects@Object@Udm_VS10@@QBE?AV?$set@VObject@Udm_VS10@@U?$less@VObject@Udm_VS10@@@std@@V?$allocator@VObject@Udm_VS10@@@4@@std@@ABUCompositionInfo@12@ABVClass@Uml@@@Z (public: class std::set<class Udm_VS10::Object,struct std::less<class Udm_VS10::Object>,class std::allocator<class Udm_VS10::Object> > __thiscall Udm_VS10::Object::GetChildObjects(struct Udm_VS10::Object::CompositionInfo const &,class Uml::Class const &)const )
                  ?GetChildObjects@Object@Udm_VS10@@QBE?AV?$set@VObject@Udm_VS10@@U?$less@VObject@Udm_VS10@@@std@@V?$allocator@VObject@Udm_VS10@@@4@@std@@ABVClass@Uml@@@Z (public: class std::set<class Udm_VS10::Object,struct std::less<class Udm_VS10::Object>,class std::allocator<class Udm_VS10::Object> > __thiscall Udm_VS10::Object::GetChildObjects(class Uml::Class const &)const )
                  ?GetChildObjects@Object@Udm_VS10@@QBE?AV?$set@VObject@Udm_VS10@@U?$less@VObject@Udm_VS10@@@std@@V?$allocator@VObject@Udm_VS10@@@4@@std@@XZ (public: class std::set<class Udm_VS10::Object,struct std::less<class Udm_VS10::Object>,class std::allocator<class Udm_VS10::Object> > __thiscall Udm_VS10::Object::GetChildObjects(void)const )
                  ?GetChildRole@Object@Udm_VS10@@QBEXABV12@AAVCompositionChildRole@Uml@@@Z (public: void __thiscall Udm_VS10::Object::GetChildRole(class Udm_VS10::Object const &,class Uml::CompositionChildRole &)const )
                  ?GetChildRoleChain@Uml@@YA_NABVClass@1@0AAV?$vector@V?$vector@VCompositionChildRole@Uml@@V?$allocator@VCompositionChildRole@Uml@@@std@@@std@@V?$allocator@V?$vector@VCompositionChildRole@Uml@@V?$allocator@VCompositionChildRole@Uml@@@std@@@std@@@2@@std@@V?$vector@VCompositionChildRole@Uml@@V?$allocator@VCompositionChildRole@Uml@@@std@@@4@@Z (bool __cdecl Uml::GetChildRoleChain(class Uml::Class const &,class Uml::Class const &,class std::vector<class std::vector<class Uml::CompositionChildRole,class std::allocator<class Uml::CompositionChildRole> >,class std::allocator<class std::vector<class Uml::CompositionChildRole,class std::allocator<class Uml::CompositionChildRole> > > > &,class std::vector<class Uml::CompositionChildRole,class std::allocator<class Uml::CompositionChildRole> >))
                  ?GetClassFromCrossDgr@Uml@@YA?AVClass@1@ABVDiagram@1@ABV21@@Z (class Uml::Class __cdecl Uml::GetClassFromCrossDgr(class Uml::Diagram const &,class Uml::Class const &))
                  ?GetClassPath@Uml@@YA?AV?$basic_string@DU?$char_traits@D@std@@V?$allocator@D@2@@std@@ABVClass@1@V23@@Z (class std::basic_string<char,struct std::char_traits<char>,class std::allocator<char> > __cdecl Uml::GetClassPath(class Uml::Class const &,class std::basic_string<char,struct std::char_traits<char>,class std::allocator<char> >))
                  ?GetCrossMeta@UdmProject@Udm_VS10@@QBEAAUUdmDiagram@2@XZ (public: struct Udm_VS10::UdmDiagram & __thiscall Udm_VS10::UdmProject::GetCrossMeta(void)const )
                  ?GetCrossMetaNetwork@UdmProject@Udm_VS10@@QAEAAVDataNetwork@2@XZ (public: class Udm_VS10::DataNetwork & __thiscall Udm_VS10::UdmProject::GetCrossMetaNetwork(void))
                  ?GetDataNetwork@StaticDataNetworkSpecifier@Udm_VS10@@QAEPAVDataNetwork@2@XZ (public: class Udm_VS10::DataNetwork * __thiscall Udm_VS10::StaticDataNetworkSpecifier::GetDataNetwork(void))
                  ?GetDataNetwork@UdmProject@Udm_VS10@@QAEAAVDataNetwork@2@ABV?$basic_string@DU?$char_traits@D@std@@V?$allocator@D@2@@std@@@Z (public: class Udm_VS10::DataNetwork & __thiscall Udm_VS10::UdmProject::GetDataNetwork(class std::basic_string<char,struct std::char_traits<char>,class std::allocator<char> > const &))
                  ?GetDataNetworks@UdmProject@Udm_VS10@@QAE?AV?$vector@PAVDataNetwork@Udm_VS10@@V?$allocator@PAVDataNetwork@Udm_VS10@@@std@@@std@@XZ (public: class std::vector<class Udm_VS10::DataNetwork *,class std::allocator<class Udm_VS10::DataNetwork *> > __thiscall Udm_VS10::UdmProject::GetDataNetworks(void))
                  ?GetDiagram@Uml@@YA?AVDiagram@1@ABVAssociation@1@@Z (class Uml::Diagram __cdecl Uml::GetDiagram(class Uml::Association const &))
                  ?GetDiagram@Uml@@YA?AVDiagram@1@ABVClass@1@@Z (class Uml::Diagram __cdecl Uml::GetDiagram(class Uml::Class const &))
                  ?GetDiagram@Uml@@YA?AVDiagram@1@ABVComposition@1@@Z (class Uml::Diagram __cdecl Uml::GetDiagram(class Uml::Composition const &))
                  ?GetDiagram@Uml@@YA?AVDiagram@1@ABVNamespace@1@@Z (class Uml::Diagram __cdecl Uml::GetDiagram(class Uml::Namespace const &))
                  ?GetDnById@DataNetwork@Udm_VS10@@SAPAV12@K@Z (public: static class Udm_VS10::DataNetwork * __cdecl Udm_VS10::DataNetwork::GetDnById(unsigned long))
                  ?GetIntVal@Object@Udm_VS10@@QBE_NABVcint_string@@AAJ@Z (public: bool __thiscall Udm_VS10::Object::GetIntVal(class cint_string const &,long &)const )
                  ?GetIntValue@Object@Udm_VS10@@QBE_NV?$basic_string@DU?$char_traits@D@std@@V?$allocator@D@2@@std@@AAV34@@Z (public: bool __thiscall Udm_VS10::Object::GetIntValue(class std::basic_string<char,struct std::char_traits<char>,class std::allocator<char> >,class std::basic_string<char,struct std::char_traits<char>,class std::allocator<char> > &)const )
                  ?GetIntValue@Object@Udm_VS10@@QBE_NV?$basic_string@DU?$char_traits@D@std@@V?$allocator@D@2@@std@@AA_J@Z (public: bool __thiscall Udm_VS10::Object::GetIntValue(class std::basic_string<char,struct std::char_traits<char>,class std::allocator<char> >,__int64 &)const )
                  ?GetIntValues@Object@Udm_VS10@@QBE_NV?$basic_string@DU?$char_traits@D@std@@V?$allocator@D@2@@std@@AAV?$vector@_JV?$allocator@_J@std@@@4@@Z (public: bool __thiscall Udm_VS10::Object::GetIntValues(class std::basic_string<char,struct std::char_traits<char>,class std::allocator<char> >,class std::vector<__int64,class std::allocator<__int64> > &)const )
                  ?GetMetaDiagrams@UdmProject@Udm_VS10@@QBE?AV?$vector@VDiagram@Uml@@V?$allocator@VDiagram@Uml@@@std@@@std@@XZ (public: class std::vector<class Uml::Diagram,class std::allocator<class Uml::Diagram> > __thiscall Udm_VS10::UdmProject::GetMetaDiagrams(void)const )
                  ?GetMetaRoleFilter@GmeDataNetwork@UdmGme@@QAE?AV?$set@V?$basic_string@DU?$char_traits@D@std@@V?$allocator@D@2@@std@@U?$less@V?$basic_string@DU?$char_traits@D@std@@V?$allocator@D@2@@std@@@2@V?$allocator@V?$basic_string@DU?$char_traits@D@std@@V?$allocator@D@2@@std@@@2@@std@@VCompositionChildRole@Uml@@@Z (public: class std::set<class std::basic_string<char,struct std::char_traits<char>,class std::allocator<char> >,struct std::less<class std::basic_string<char,struct std::char_traits<char>,class std::allocator<char> > >,class std::allocator<class std::basic_string<char,struct std::char_traits<char>,class std::allocator<char> > > > __thiscall UdmGme::GmeDataNetwork::GetMetaRoleFilter(class Uml::CompositionChildRole))
                  ?GetMyParentsInstances@Object@Udm_VS10@@QBE?AV?$set@VObject@Udm_VS10@@U?$less@VObject@Udm_VS10@@@std@@V?$allocator@VObject@Udm_VS10@@@4@@std@@_N@Z (public: class std::set<class Udm_VS10::Object,struct std::less<class Udm_VS10::Object>,class std::allocator<class Udm_VS10::Object> > __thiscall Udm_VS10::Object::GetMyParentsInstances(bool)const )
                  ?GetMyParentsSubtypes@Object@Udm_VS10@@QBE?AV?$set@VObject@Udm_VS10@@U?$less@VObject@Udm_VS10@@@std@@V?$allocator@VObject@Udm_VS10@@@4@@std@@_N@Z (public: class std::set<class Udm_VS10::Object,struct std::less<class Udm_VS10::Object>,class std::allocator<class Udm_VS10::Object> > __thiscall Udm_VS10::Object::GetMyParentsSubtypes(bool)const )
                  ?GetParent@Object@Udm_VS10@@QBE?AV12@XZ (public: class Udm_VS10::Object __thiscall Udm_VS10::Object::GetParent(void)const )
                  ?GetParentNamespaces@Uml@@YA?AV?$vector@VNamespace@Uml@@V?$allocator@VNamespace@Uml@@@std@@@std@@ABVNamespace@1@@Z (class std::vector<class Uml::Namespace,class std::allocator<class Uml::Namespace> > __cdecl Uml::GetParentNamespaces(class Uml::Namespace const &))
                  ?GetPeersFromAssociationClassObject@Object@Udm_VS10@@QAE?AU?$pair@VObject@Udm_VS10@@V12@@std@@XZ (public: struct std::pair<class Udm_VS10::Object,class Udm_VS10::Object> __thiscall Udm_VS10::Object::GetPeersFromAssociationClassObject(void))
                  ?GetRealVal@Object@Udm_VS10@@QBE_NABVcint_string@@AAN@Z (public: bool __thiscall Udm_VS10::Object::GetRealVal(class cint_string const &,double &)const )
                  ?GetRealValue@Object@Udm_VS10@@QBE_NV?$basic_string@DU?$char_traits@D@std@@V?$allocator@D@2@@std@@AAN@Z (public: bool __thiscall Udm_VS10::Object::GetRealValue(class std::basic_string<char,struct std::char_traits<char>,class std::allocator<char> >,double &)const )
                  ?GetRealValues@Object@Udm_VS10@@QBE_NV?$basic_string@DU?$char_traits@D@std@@V?$allocator@D@2@@std@@AAV?$vector@NV?$allocator@N@std@@@4@@Z (public: bool __thiscall Udm_VS10::Object::GetRealValues(class std::basic_string<char,struct std::char_traits<char>,class std::allocator<char> >,class std::vector<double,class std::allocator<double> > &)const )
                  ?GetSafeType@SafeTypeContainer@Uml@@SAABVClass@2@ABV32@@Z (public: static class Uml::Class const & __cdecl Uml::SafeTypeContainer::GetSafeType(class Uml::Class const &))
                  ?GetStrVal@Object@Udm_VS10@@QBE_NABVcint_string@@AAV3@@Z (public: bool __thiscall Udm_VS10::Object::GetStrVal(class cint_string const &,class cint_string &)const )
                  ?GetStrValue@Object@Udm_VS10@@QBE_NV?$basic_string@DU?$char_traits@D@std@@V?$allocator@D@2@@std@@AAV34@@Z (public: bool __thiscall Udm_VS10::Object::GetStrValue(class std::basic_string<char,struct std::char_traits<char>,class std::allocator<char> >,class std::basic_string<char,struct std::char_traits<char>,class std::allocator<char> > &)const )
                  ?GetStrValue@Object@Udm_VS10@@QBE_NV?$basic_string@DU?$char_traits@D@std@@V?$allocator@D@2@@std@@AA_J@Z (public: bool __thiscall Udm_VS10::Object::GetStrValue(class std::basic_string<char,struct std::char_traits<char>,class std::allocator<char> >,__int64 &)const )
                  ?GetStrValues@Object@Udm_VS10@@QBE_NV?$basic_string@DU?$char_traits@D@std@@V?$allocator@D@2@@std@@AAV?$vector@V?$basic_string@DU?$char_traits@D@std@@V?$allocator@D@2@@std@@V?$allocator@V?$basic_string@DU?$char_traits@D@std@@V?$allocator@D@2@@std@@@2@@4@@Z (public: bool __thiscall Udm_VS10::Object::GetStrValues(class std::basic_string<char,struct std::char_traits<char>,class std::allocator<char> >,class std::vector<class std::basic_string<char,struct std::char_traits<char>,class std::allocator<char> >,class std::allocator<class std::basic_string<char,struct std::char_traits<char>,class std::allocator<char> > > > &)const )
                  ?GetTheOnlyNamespace@Uml@@YA?AVNamespace@1@ABVDiagram@1@@Z (class Uml::Namespace __cdecl Uml::GetTheOnlyNamespace(class Uml::Diagram const &))
                  ?Gme2Udm@GmeDataNetwork@UdmGme@@QAE?AVObject@Udm_VS10@@PAUIUnknown@@@Z (public: class Udm_VS10::Object __thiscall UdmGme::GmeDataNetwork::Gme2Udm(struct IUnknown *))
                  ?GmeId2UdmId@UdmGme@@YAJPBD@Z (long __cdecl UdmGme::GmeId2UdmId(char const *))
                  ?GmeId2UdmId@UdmGme@@YAJPB_W@Z (long __cdecl UdmGme::GmeId2UdmId(wchar_t const *))
                  ?HasChildRoleMultipleTargets@Uml@@YA_NABVCompositionChildRole@1@@Z (bool __cdecl Uml::HasChildRoleMultipleTargets(class Uml::CompositionChildRole const &))
                  ?HasCrossMeta@UdmProject@Udm_VS10@@QBE_NXZ (public: bool __thiscall Udm_VS10::UdmProject::HasCrossMeta(void)const )
                  ?HasObjectInstances@Object@Udm_VS10@@QBE_N_N@Z (public: bool __thiscall Udm_VS10::Object::HasObjectInstances(bool)const )
                  ?HasObjectSubtypes@Object@Udm_VS10@@QBE_N_N@Z (public: bool __thiscall Udm_VS10::Object::HasObjectSubtypes(bool)const )
                  ?HasTextAttributes@Uml@@YA_NABVClass@1@@Z (bool __cdecl Uml::HasTextAttributes(class Uml::Class const &))
                  ?InitAssociation@Uml@@YAXABVAssociation@1@ABVDiagram@1@PBD@Z (void __cdecl Uml::InitAssociation(class Uml::Association const &,class Uml::Diagram const &,char const *))
                  ?InitAssociation@Uml@@YAXABVAssociation@1@ABVNamespace@1@PBD@Z (void __cdecl Uml::InitAssociation(class Uml::Association const &,class Uml::Namespace const &,char const *))
                  ?InitAssociationClass@Uml@@YAXABVAssociation@1@ABVClass@1@@Z (void __cdecl Uml::InitAssociationClass(class Uml::Association const &,class Uml::Class const &))
                  ?InitAssociationProps@Uml@@YAXABVAssociation@1@PBD@Z (void __cdecl Uml::InitAssociationProps(class Uml::Association const &,char const *))
                  ?InitAssociationRole@Uml@@YAXABVAssociationRole@1@ABVAssociation@1@PBD_N3JJABVClass@1@@Z (void __cdecl Uml::InitAssociationRole(class Uml::AssociationRole const &,class Uml::Association const &,char const *,bool,bool,long,long,class Uml::Class const &))
                  ?InitAssociationRoleProps@Uml@@YAXABVAssociationRole@1@PBD_N2JJ@Z (void __cdecl Uml::InitAssociationRoleProps(class Uml::AssociationRole const &,char const *,bool,bool,long,long))
                  ?InitAttribute@Uml@@YAXABVAttribute@1@ABVClass@1@PBD2_N3HH_NABV?$basic_string@DU?$char_traits@D@std@@V?$allocator@D@2@@std@@ABV?$vector@V?$basic_string@DU?$char_traits@D@std@@V?$allocator@D@2@@std@@V?$allocator@V?$basic_string@DU?$char_traits@D@std@@V?$allocator@D@2@@std@@@2@@5@@Z (void __cdecl Uml::InitAttribute(class Uml::Attribute const &,class Uml::Class const &,char const *,char const *,bool,bool,int,int,bool,class std::basic_string<char,struct std::char_traits<char>,class std::allocator<char> > const &,class std::vector<class std::basic_string<char,struct std::char_traits<char>,class std::allocator<char> >,class std::allocator<class std::basic_string<char,struct std::char_traits<char>,class std::allocator<char> > > > const &))
                  ?InitAttributeProps@Uml@@YAXABVAttribute@1@PBD1_N2HH_NABV?$basic_string@DU?$char_traits@D@std@@V?$allocator@D@2@@std@@ABV?$vector@V?$basic_string@DU?$char_traits@D@std@@V?$allocator@D@2@@std@@V?$allocator@V?$basic_string@DU?$char_traits@D@std@@V?$allocator@D@2@@std@@@2@@4@@Z (void __cdecl Uml::InitAttributeProps(class Uml::Attribute const &,char const *,char const *,bool,bool,int,int,bool,class std::basic_string<char,struct std::char_traits<char>,class std::allocator<char> > const &,class std::vector<class std::basic_string<char,struct std::char_traits<char>,class std::allocator<char> >,class std::allocator<class std::basic_string<char,struct std::char_traits<char>,class std::allocator<char> > > > const &))
                  ?InitClass@Uml@@YAXABVClass@1@ABVDiagram@1@PBD_N22@Z (void __cdecl Uml::InitClass(class Uml::Class const &,class Uml::Diagram const &,char const *,bool,char const *,char const *))
                  ?InitClass@Uml@@YAXABVClass@1@ABVNamespace@1@PBD_N22@Z (void __cdecl Uml::InitClass(class Uml::Class const &,class Uml::Namespace const &,char const *,bool,char const *,char const *))
                  ?InitClassProps@Uml@@YAXABVClass@1@PBD_N11@Z (void __cdecl Uml::InitClassProps(class Uml::Class const &,char const *,bool,char const *,char const *))
                  ?InitComposition@Uml@@YAXABVComposition@1@ABVDiagram@1@PBD_N@Z (void __cdecl Uml::InitComposition(class Uml::Composition const &,class Uml::Diagram const &,char const *,bool))
                  ?InitComposition@Uml@@YAXABVComposition@1@ABVNamespace@1@PBD_N@Z (void __cdecl Uml::InitComposition(class Uml::Composition const &,class Uml::Namespace const &,char const *,bool))
                  ?InitCompositionChildRole@Uml@@YAXABVCompositionChildRole@1@ABVComposition@1@PBD_NJJABVClass@1@@Z (void __cdecl Uml::InitCompositionChildRole(class Uml::CompositionChildRole const &,class Uml::Composition const &,char const *,bool,long,long,class Uml::Class const &))
                  ?InitCompositionChildRoleProps@Uml@@YAXABVCompositionChildRole@1@PBD_NJJ@Z (void __cdecl Uml::InitCompositionChildRoleProps(class Uml::CompositionChildRole const &,char const *,bool,long,long))
                  ?InitCompositionParentRole@Uml@@YAXABVCompositionParentRole@1@ABVComposition@1@PBD_NABVClass@1@@Z (void __cdecl Uml::InitCompositionParentRole(class Uml::CompositionParentRole const &,class Uml::Composition const &,char const *,bool,class Uml::Class const &))
                  ?InitCompositionParentRoleProps@Uml@@YAXABVCompositionParentRole@1@PBD_N@Z (void __cdecl Uml::InitCompositionParentRoleProps(class Uml::CompositionParentRole const &,char const *,bool))
                  ?InitCompositionProps@Uml@@YAXABVComposition@1@PBD_N@Z (void __cdecl Uml::InitCompositionProps(class Uml::Composition const &,char const *,bool))
                  ?InitConstraint@Uml@@YAXABVConstraint@1@ABVClass@1@PBD22@Z (void __cdecl Uml::InitConstraint(class Uml::Constraint const &,class Uml::Class const &,char const *,char const *,char const *))
                  ?InitConstraintDefinition@Uml@@YAXABVConstraintDefinition@1@ABVClass@1@PBD2222@Z (void __cdecl Uml::InitConstraintDefinition(class Uml::ConstraintDefinition const &,class Uml::Class const &,char const *,char const *,char const *,char const *,char const *))
                  ?InitConstraintDefinitionProps@Uml@@YAXABVConstraintDefinition@1@PBD1111@Z (void __cdecl Uml::InitConstraintDefinitionProps(class Uml::ConstraintDefinition const &,char const *,char const *,char const *,char const *,char const *))
                  ?InitConstraintProps@Uml@@YAXABVConstraint@1@PBD11@Z (void __cdecl Uml::InitConstraintProps(class Uml::Constraint const &,char const *,char const *,char const *))
                  ?InitDiagram@Uml@@YAXABVDiagram@1@PBD1@Z (void __cdecl Uml::InitDiagram(class Uml::Diagram const &,char const *,char const *))
                  ?InitDiagramProps@Uml@@YAXABVDiagram@1@PBD1@Z (void __cdecl Uml::InitDiagramProps(class Uml::Diagram const &,char const *,char const *))
                  ?InitNamespace@Uml@@YAXABVNamespace@1@0PBD@Z (void __cdecl Uml::InitNamespace(class Uml::Namespace const &,class Uml::Namespace const &,char const *))
                  ?InitNamespace@Uml@@YAXABVNamespace@1@ABVDiagram@1@PBD@Z (void __cdecl Uml::InitNamespace(class Uml::Namespace const &,class Uml::Diagram const &,char const *))
                  ?InitNamespaceProps@Uml@@YAXABVNamespace@1@PBD@Z (void __cdecl Uml::InitNamespaceProps(class Uml::Namespace const &,char const *))
                  ?Initialize@Ocl@@YA_NABVDiagram@Uml@@ABUSErrorNotification@1@@Z (bool __cdecl Ocl::Initialize(class Uml::Diagram const &,struct Ocl::SErrorNotification const &))
                  ?Initialize@Uml@@YAXXZ (void __cdecl Uml::Initialize(void))
                  ?Instances@Association@Uml@@QAE?AV?$InstantiatedAttr@VAssociation@Uml@@U?$less@VAssociation@Uml@@@std@@@Udm_VS10@@XZ (public: class Udm_VS10::InstantiatedAttr<class Uml::Association,struct std::less<class Uml::Association> > __thiscall Uml::Association::Instances(void))
                  ?Instances@AssociationRole@Uml@@QAE?AV?$InstantiatedAttr@VAssociationRole@Uml@@U?$less@VAssociationRole@Uml@@@std@@@Udm_VS10@@XZ (public: class Udm_VS10::InstantiatedAttr<class Uml::AssociationRole,struct std::less<class Uml::AssociationRole> > __thiscall Uml::AssociationRole::Instances(void))
                  ?Instances@Attribute@Uml@@QAE?AV?$InstantiatedAttr@VAttribute@Uml@@U?$less@VAttribute@Uml@@@std@@@Udm_VS10@@XZ (public: class Udm_VS10::InstantiatedAttr<class Uml::Attribute,struct std::less<class Uml::Attribute> > __thiscall Uml::Attribute::Instances(void))
                  ?Instances@Class@Uml@@QAE?AV?$InstantiatedAttr@VClass@Uml@@U?$less@VClass@Uml@@@std@@@Udm_VS10@@XZ (public: class Udm_VS10::InstantiatedAttr<class Uml::Class,struct std::less<class Uml::Class> > __thiscall Uml::Class::Instances(void))
                  ?Instances@Composition@Uml@@QAE?AV?$InstantiatedAttr@VComposition@Uml@@U?$less@VComposition@Uml@@@std@@@Udm_VS10@@XZ (public: class Udm_VS10::InstantiatedAttr<class Uml::Composition,struct std::less<class Uml::Composition> > __thiscall Uml::Composition::Instances(void))
                  ?Instances@CompositionChildRole@Uml@@QAE?AV?$InstantiatedAttr@VCompositionChildRole@Uml@@U?$less@VCompositionChildRole@Uml@@@std@@@Udm_VS10@@XZ (public: class Udm_VS10::InstantiatedAttr<class Uml::CompositionChildRole,struct std::less<class Uml::CompositionChildRole> > __thiscall Uml::CompositionChildRole::Instances(void))
                  ?Instances@CompositionParentRole@Uml@@QAE?AV?$InstantiatedAttr@VCompositionParentRole@Uml@@U?$less@VCompositionParentRole@Uml@@@std@@@Udm_VS10@@XZ (public: class Udm_VS10::InstantiatedAttr<class Uml::CompositionParentRole,struct std::less<class Uml::CompositionParentRole> > __thiscall Uml::CompositionParentRole::Instances(void))
                  ?Instances@Constraint@Uml@@QAE?AV?$InstantiatedAttr@VConstraint@Uml@@U?$less@VConstraint@Uml@@@std@@@Udm_VS10@@XZ (public: class Udm_VS10::InstantiatedAttr<class Uml::Constraint,struct std::less<class Uml::Constraint> > __thiscall Uml::Constraint::Instances(void))
                  ?Instances@ConstraintDefinition@Uml@@QAE?AV?$InstantiatedAttr@VConstraintDefinition@Uml@@U?$less@VConstraintDefinition@Uml@@@std@@@Udm_VS10@@XZ (public: class Udm_VS10::InstantiatedAttr<class Uml::ConstraintDefinition,struct std::less<class Uml::ConstraintDefinition> > __thiscall Uml::ConstraintDefinition::Instances(void))
                  ?Instances@Diagram@Uml@@QAE?AV?$InstantiatedAttr@VDiagram@Uml@@U?$less@VDiagram@Uml@@@std@@@Udm_VS10@@XZ (public: class Udm_VS10::InstantiatedAttr<class Uml::Diagram,struct std::less<class Uml::Diagram> > __thiscall Uml::Diagram::Instances(void))
                  ?Instances@GenericRole@Uml@@QAE?AV?$InstantiatedAttr@VGenericRole@Uml@@U?$less@VGenericRole@Uml@@@std@@@Udm_VS10@@XZ (public: class Udm_VS10::InstantiatedAttr<class Uml::GenericRole,struct std::less<class Uml::GenericRole> > __thiscall Uml::GenericRole::Instances(void))
                  ?Instances@Namespace@Uml@@QAE?AV?$InstantiatedAttr@VNamespace@Uml@@U?$less@VNamespace@Uml@@@std@@@Udm_VS10@@XZ (public: class Udm_VS10::InstantiatedAttr<class Uml::Namespace,struct std::less<class Uml::Namespace> > __thiscall Uml::Namespace::Instances(void))
                  ?Instances@TaggedValue@Uml@@QAE?AV?$InstantiatedAttr@VTaggedValue@Uml@@U?$less@VTaggedValue@Uml@@@std@@@Udm_VS10@@XZ (public: class Udm_VS10::InstantiatedAttr<class Uml::TaggedValue,struct std::less<class Uml::TaggedValue> > __thiscall Uml::TaggedValue::Instances(void))
                  ?IsAssocClass@Uml@@YA_NABVAssociation@1@@Z (bool __cdecl Uml::IsAssocClass(class Uml::Association const &))
                  ?IsAssocClass@Uml@@YA_NABVClass@1@@Z (bool __cdecl Uml::IsAssocClass(class Uml::Class const &))
                  ?IsCrossMetaSpecifier@UdmProject@Udm_VS10@@QBE_NXZ (public: bool __thiscall Udm_VS10::UdmProject::IsCrossMetaSpecifier(void)const )
                  ?IsCrossNSAssociation@Uml@@YA_NABVAssociation@1@@Z (bool __cdecl Uml::IsCrossNSAssociation(class Uml::Association const &))
                  ?IsCrossNSComposition@Uml@@YA_NABVComposition@1@@Z (bool __cdecl Uml::IsCrossNSComposition(class Uml::Composition const &))
                  ?IsDerivedFrom@Udm_VS10@@YA_NABVClass@Uml@@0@Z (bool __cdecl Udm_VS10::IsDerivedFrom(class Uml::Class const &,class Uml::Class const &))
                  ?IsDerivedFrom@Uml@@YA_NABVClass@1@0@Z (bool __cdecl Uml::IsDerivedFrom(class Uml::Class const &,class Uml::Class const &))
                  ?IsNodeOfTree@Object@Udm_VS10@@QAE_NABV12@@Z (public: bool __thiscall Udm_VS10::Object::IsNodeOfTree(class Udm_VS10::Object const &))
                  ?IsSafeType@SafeTypeContainer@Uml@@SA_NABVClass@2@@Z (public: static bool __cdecl Uml::SafeTypeContainer::IsSafeType(class Uml::Class const &))
                  ?IsTypeSafe@DataNetwork@Udm_VS10@@UAE_NXZ (public: virtual bool __thiscall Udm_VS10::DataNetwork::IsTypeSafe(void))
                  ?IsTypeSafe@StaticDataNetwork@UdmStatic@@UAE_NXZ (public: virtual bool __thiscall UdmStatic::StaticDataNetwork::IsTypeSafe(void))
                  ?LocateDiagram@MetaDepository@Udm_VS10@@SAABUUdmDiagram@2@ABV?$basic_string@DU?$char_traits@D@std@@V?$allocator@D@2@@std@@@Z (public: static struct Udm_VS10::UdmDiagram const & __cdecl Udm_VS10::MetaDepository::LocateDiagram(class std::basic_string<char,struct std::char_traits<char>,class std::allocator<char> > const &))
                  ?MakeRoleName@Uml@@YA?AV?$basic_string@DU?$char_traits@D@std@@V?$allocator@D@2@@std@@ABVGenericRole@1@@Z (class std::basic_string<char,struct std::char_traits<char>,class std::allocator<char> > __cdecl Uml::MakeRoleName(class Uml::GenericRole const &))
                  ?MakeShortRoleName@Uml@@YA?AV?$basic_string@DU?$char_traits@D@std@@V?$allocator@D@2@@std@@ABVGenericRole@1@@Z (class std::basic_string<char,struct std::char_traits<char>,class std::allocator<char> > __cdecl Uml::MakeShortRoleName(class Uml::GenericRole const &))
                  ?MapExistingIDs@DomDataNetwork@UdmDom@@QAEXABVDOMNode@xercesc_2_8@@@Z (public: void __thiscall UdmDom::DomDataNetwork::MapExistingIDs(class xercesc_2_8::DOMNode const &))
                  ?NULLCHILDROLE@Udm_VS10@@3VCompositionChildRole@Uml@@B (class Uml::CompositionChildRole const Udm_VS10::NULLCHILDROLE)
                  ?NULLPARENTROLE@Udm_VS10@@3VCompositionParentRole@Uml@@B (class Uml::CompositionParentRole const Udm_VS10::NULLPARENTROLE)
                  ?Namespace_kind_children@Diagram@Uml@@QBE?AV?$ChildrenAttr@VNamespace@Uml@@U?$less@VNamespace@Uml@@@std@@@Udm_VS10@@XZ (public: class Udm_VS10::ChildrenAttr<class Uml::Namespace,struct std::less<class Uml::Namespace> > __thiscall Uml::Diagram::Namespace_kind_children(void)const )
                  ?Namespace_kind_children@Namespace@Uml@@QBE?AV?$ChildrenAttr@VNamespace@Uml@@U?$less@VNamespace@Uml@@@std@@@Udm_VS10@@XZ (public: class Udm_VS10::ChildrenAttr<class Uml::Namespace,struct std::less<class Uml::Namespace> > __thiscall Uml::Namespace::Namespace_kind_children(void)const )
                  ?ObjectById@DomDataNetwork@UdmDom@@UAE?AVObject@Udm_VS10@@J@Z (public: virtual class Udm_VS10::Object __thiscall UdmDom::DomDataNetwork::ObjectById(long))
                  ?ObjectById@GmeDataNetwork@UdmGme@@UAE?AVObject@Udm_VS10@@J@Z (public: virtual class Udm_VS10::Object __thiscall UdmGme::GmeDataNetwork::ObjectById(long))
                  ?ObjectById@StaticDataNetwork@UdmStatic@@UAE?AVObject@Udm_VS10@@J@Z (public: virtual class Udm_VS10::Object __thiscall UdmStatic::StaticDataNetwork::ObjectById(long))
                  ?OpenExisting@DomDataNetwork@UdmDom@@UAEXABV?$basic_string@DU?$char_traits@D@std@@V?$allocator@D@2@@std@@0W4BackendSemantics@Udm_VS10@@@Z (public: virtual void __thiscall UdmDom::DomDataNetwork::OpenExisting(class std::basic_string<char,struct std::char_traits<char>,class std::allocator<char> > const &,class std::basic_string<char,struct std::char_traits<char>,class std::allocator<char> > const &,enum Udm_VS10::BackendSemantics))
                  ?OpenExisting@GmeDataNetwork@UdmGme@@QAEXPAUIUnknown@@W4BackendSemantics@Udm_VS10@@@Z (public: void __thiscall UdmGme::GmeDataNetwork::OpenExisting(struct IUnknown *,enum Udm_VS10::BackendSemantics))
                  ?OpenExisting@GmeDataNetwork@UdmGme@@QAEXPAUIUnknown@@W4BackendSemantics@Udm_VS10@@_N@Z (public: void __thiscall UdmGme::GmeDataNetwork::OpenExisting(struct IUnknown *,enum Udm_VS10::BackendSemantics,bool))
                  ?OpenExisting@GmeDataNetwork@UdmGme@@UAEXABV?$basic_string@DU?$char_traits@D@std@@V?$allocator@D@2@@std@@0W4BackendSemantics@Udm_VS10@@@Z (public: virtual void __thiscall UdmGme::GmeDataNetwork::OpenExisting(class std::basic_string<char,struct std::char_traits<char>,class std::allocator<char> > const &,class std::basic_string<char,struct std::char_traits<char>,class std::allocator<char> > const &,enum Udm_VS10::BackendSemantics))
                  ?OpenExisting@StaticDataNetwork@UdmStatic@@UAEXABV?$basic_string@DU?$char_traits@D@std@@V?$allocator@D@2@@std@@0W4BackendSemantics@Udm_VS10@@@Z (public: virtual void __thiscall UdmStatic::StaticDataNetwork::OpenExisting(class std::basic_string<char,struct std::char_traits<char>,class std::allocator<char> > const &,class std::basic_string<char,struct std::char_traits<char>,class std::allocator<char> > const &,enum Udm_VS10::BackendSemantics))
                  ?OpenExisting@StaticUdmProject@Udm_VS10@@UAEXABV?$basic_string@DU?$char_traits@D@std@@V?$allocator@D@2@@std@@W4BackendSemantics@2@@Z (public: virtual void __thiscall Udm_VS10::StaticUdmProject::OpenExisting(class std::basic_string<char,struct std::char_traits<char>,class std::allocator<char> > const &,enum Udm_VS10::BackendSemantics))
                  ?OpenExisting@UdmProject@Udm_VS10@@UAEXABV?$basic_string@DU?$char_traits@D@std@@V?$allocator@D@2@@std@@W4BackendSemantics@2@@Z (public: virtual void __thiscall Udm_VS10::UdmProject::OpenExisting(class std::basic_string<char,struct std::char_traits<char>,class std::allocator<char> > const &,enum Udm_VS10::BackendSemantics))
                  ?OpenExistingFromString@DataNetwork@Udm_VS10@@UAEXAAV?$basic_string@DU?$char_traits@D@std@@V?$allocator@D@2@@std@@ABV34@W4BackendSemantics@2@@Z (public: virtual void __thiscall Udm_VS10::DataNetwork::OpenExistingFromString(class std::basic_string<char,struct std::char_traits<char>,class std::allocator<char> > &,class std::basic_string<char,struct std::char_traits<char>,class std::allocator<char> > const &,enum Udm_VS10::BackendSemantics))
                  ?OpenExistingFromString@DomDataNetwork@UdmDom@@UAEXAAV?$basic_string@DU?$char_traits@D@std@@V?$allocator@D@2@@std@@ABV34@W4BackendSemantics@Udm_VS10@@@Z (public: virtual void __thiscall UdmDom::DomDataNetwork::OpenExistingFromString(class std::basic_string<char,struct std::char_traits<char>,class std::allocator<char> > &,class std::basic_string<char,struct std::char_traits<char>,class std::allocator<char> > const &,enum Udm_VS10::BackendSemantics))
                  ?ProcessPat@Ocl@@YA_NABVDiagram@Uml@@ABVObject@Udm_VS10@@ABV?$basic_string@DU?$char_traits@D@std@@V?$allocator@D@2@@std@@@Z (bool __cdecl Ocl::ProcessPat(class Uml::Diagram const &,class Udm_VS10::Object const &,class std::basic_string<char,struct std::char_traits<char>,class std::allocator<char> > const &))
                  ?ProcessPat@UdmPat@@YA_NABVDiagram@Uml@@ABVObject@Udm_VS10@@ABV?$basic_string@DU?$char_traits@D@std@@V?$allocator@D@2@@std@@@Z (bool __cdecl UdmPat::ProcessPat(class Uml::Diagram const &,class Udm_VS10::Object const &,class std::basic_string<char,struct std::char_traits<char>,class std::allocator<char> > const &))
                  ?RegisterBackend@DataNetwork@Udm_VS10@@SAXABV?$basic_string@DU?$char_traits@D@std@@V?$allocator@D@2@@std@@0P6APAV12@ABUUdmDiagram@2@PAVUdmProject@2@@Z@Z (public: static void __cdecl Udm_VS10::DataNetwork::RegisterBackend(class std::basic_string<char,struct std::char_traits<char>,class std::allocator<char> > const &,class std::basic_string<char,struct std::char_traits<char>,class std::allocator<char> > const &,class Udm_VS10::DataNetwork * (__cdecl*)(struct Udm_VS10::UdmDiagram const &,class Udm_VS10::UdmProject *)))
                  ?RemoveDiagram@MetaDepository@Udm_VS10@@SAXABV?$basic_string@DU?$char_traits@D@std@@V?$allocator@D@2@@std@@@Z (public: static void __cdecl Udm_VS10::MetaDepository::RemoveDiagram(class std::basic_string<char,struct std::char_traits<char>,class std::allocator<char> > const &))
                  ?RemoveSafeType@SafeTypeContainer@Uml@@SAXABVClass@2@@Z (public: static void __cdecl Uml::SafeTypeContainer::RemoveSafeType(class Uml::Class const &))
                  ?RemoveURIToUMLNamespaceMapping@UdmDom@@YAXABV?$basic_string@DU?$char_traits@D@std@@V?$allocator@D@2@@std@@@Z (void __cdecl UdmDom::RemoveURIToUMLNamespaceMapping(class std::basic_string<char,struct std::char_traits<char>,class std::allocator<char> > const &))
                  ?ResetDynamicMetas@StaticUdmProject@Udm_VS10@@UAEXXZ (public: virtual void __thiscall Udm_VS10::StaticUdmProject::ResetDynamicMetas(void))
                  ?ResetDynamicMetas@UdmProject@Udm_VS10@@UAEXXZ (public: virtual void __thiscall Udm_VS10::UdmProject::ResetDynamicMetas(void))
                  ?SaveAs@DomDataNetwork@UdmDom@@UAEXV?$basic_string@DU?$char_traits@D@std@@V?$allocator@D@2@@std@@@Z (public: virtual void __thiscall UdmDom::DomDataNetwork::SaveAs(class std::basic_string<char,struct std::char_traits<char>,class std::allocator<char> >))
                  ?SaveAs@GmeDataNetwork@UdmGme@@UAEXV?$basic_string@DU?$char_traits@D@std@@V?$allocator@D@2@@std@@@Z (public: virtual void __thiscall UdmGme::GmeDataNetwork::SaveAs(class std::basic_string<char,struct std::char_traits<char>,class std::allocator<char> >))
                  ?SaveAs@StaticDataNetwork@UdmStatic@@UAEXV?$basic_string@DU?$char_traits@D@std@@V?$allocator@D@2@@std@@@Z (public: virtual void __thiscall UdmStatic::StaticDataNetwork::SaveAs(class std::basic_string<char,struct std::char_traits<char>,class std::allocator<char> >))
                  ?SetAssocRole@Uml@@YAXAAVAssociationRole@1@AAVClass@1@1PBD@Z (void __cdecl Uml::SetAssocRole(class Uml::AssociationRole &,class Uml::Class &,class Uml::Class &,char const *))
                  ?SetAttribute@Uml@@YAXAAVAttribute@1@AAVClass@1@PBD@Z (void __cdecl Uml::SetAttribute(class Uml::Attribute &,class Uml::Class &,char const *))
                  ?SetBoolVal@Object@Udm_VS10@@QAE_NABVcint_string@@_N@Z (public: bool __thiscall Udm_VS10::Object::SetBoolVal(class cint_string const &,bool))
                  ?SetBoolValue@Object@Udm_VS10@@QAE_NV?$basic_string@DU?$char_traits@D@std@@V?$allocator@D@2@@std@@_N@Z (public: bool __thiscall Udm_VS10::Object::SetBoolValue(class std::basic_string<char,struct std::char_traits<char>,class std::allocator<char> >,bool))
                  ?SetBoolValues@Object@Udm_VS10@@QAE_NV?$basic_string@DU?$char_traits@D@std@@V?$allocator@D@2@@std@@ABV?$vector@_NV?$allocator@_N@std@@@4@@Z (public: bool __thiscall Udm_VS10::Object::SetBoolValues(class std::basic_string<char,struct std::char_traits<char>,class std::allocator<char> >,class std::vector<bool,class std::allocator<bool> > const &))
                  ?SetChildRole@Uml@@YAXAAVCompositionChildRole@1@AAVClass@1@1PBD2@Z (void __cdecl Uml::SetChildRole(class Uml::CompositionChildRole &,class Uml::Class &,class Uml::Class &,char const *,char const *))
                  ?SetClass@Uml@@YAXAAVClass@1@ABVDiagram@1@PBD@Z (void __cdecl Uml::SetClass(class Uml::Class &,class Uml::Diagram const &,char const *))
                  ?SetClass@Uml@@YAXAAVClass@1@ABVNamespace@1@PBD@Z (void __cdecl Uml::SetClass(class Uml::Class &,class Uml::Namespace const &,char const *))
                  ?SetConstraint@Uml@@YAXAAVConstraint@1@AAVClass@1@PBD@Z (void __cdecl Uml::SetConstraint(class Uml::Constraint &,class Uml::Class &,char const *))
                  ?SetConstraintDefinition@Uml@@YAXAAVConstraintDefinition@1@AAVClass@1@PBD@Z (void __cdecl Uml::SetConstraintDefinition(class Uml::ConstraintDefinition &,class Uml::Class &,char const *))
                  ?SetDiagram@Uml@@YAXAAVDiagram@1@ABV21@@Z (void __cdecl Uml::SetDiagram(class Uml::Diagram &,class Uml::Diagram const &))
                  ?SetIntVal@Object@Udm_VS10@@QAE_NABVcint_string@@J@Z (public: bool __thiscall Udm_VS10::Object::SetIntVal(class cint_string const &,long))
                  ?SetIntValue@Object@Udm_VS10@@QAE_NV?$basic_string@DU?$char_traits@D@std@@V?$allocator@D@2@@std@@ABV34@@Z (public: bool __thiscall Udm_VS10::Object::SetIntValue(class std::basic_string<char,struct std::char_traits<char>,class std::allocator<char> >,class std::basic_string<char,struct std::char_traits<char>,class std::allocator<char> > const &))
                  ?SetIntValue@Object@Udm_VS10@@QAE_NV?$basic_string@DU?$char_traits@D@std@@V?$allocator@D@2@@std@@AB_J@Z (public: bool __thiscall Udm_VS10::Object::SetIntValue(class std::basic_string<char,struct std::char_traits<char>,class std::allocator<char> >,__int64 const &))
                  ?SetIntValues@Object@Udm_VS10@@QAE_NV?$basic_string@DU?$char_traits@D@std@@V?$allocator@D@2@@std@@ABV?$vector@_JV?$allocator@_J@std@@@4@@Z (public: bool __thiscall Udm_VS10::Object::SetIntValues(class std::basic_string<char,struct std::char_traits<char>,class std::allocator<char> >,class std::vector<__int64,class std::allocator<__int64> > const &))
                  ?SetNamespace@Uml@@YAXAAVNamespace@1@ABV21@PBD@Z (void __cdecl Uml::SetNamespace(class Uml::Namespace &,class Uml::Namespace const &,char const *))
                  ?SetNamespace@Uml@@YAXAAVNamespace@1@ABVDiagram@1@PBD@Z (void __cdecl Uml::SetNamespace(class Uml::Namespace &,class Uml::Diagram const &,char const *))
                  ?SetParentRole@Uml@@YAXAAVCompositionParentRole@1@AAVClass@1@1PBD2@Z (void __cdecl Uml::SetParentRole(class Uml::CompositionParentRole &,class Uml::Class &,class Uml::Class &,char const *,char const *))
                  ?SetRealVal@Object@Udm_VS10@@QAE_NABVcint_string@@N@Z (public: bool __thiscall Udm_VS10::Object::SetRealVal(class cint_string const &,double))
                  ?SetRealValue@Object@Udm_VS10@@QAE_NV?$basic_string@DU?$char_traits@D@std@@V?$allocator@D@2@@std@@N@Z (public: bool __thiscall Udm_VS10::Object::SetRealValue(class std::basic_string<char,struct std::char_traits<char>,class std::allocator<char> >,double))
                  ?SetRealValues@Object@Udm_VS10@@QAE_NV?$basic_string@DU?$char_traits@D@std@@V?$allocator@D@2@@std@@ABV?$vector@NV?$allocator@N@std@@@4@@Z (public: bool __thiscall Udm_VS10::Object::SetRealValues(class std::basic_string<char,struct std::char_traits<char>,class std::allocator<char> >,class std::vector<double,class std::allocator<double> > const &))
                  ?SetStrVal@Object@Udm_VS10@@QAE_NABVcint_string@@AAV3@@Z (public: bool __thiscall Udm_VS10::Object::SetStrVal(class cint_string const &,class cint_string &))
                  ?SetStrVal@Object@Udm_VS10@@QAE_NABVcint_string@@PAD@Z (public: bool __thiscall Udm_VS10::Object::SetStrVal(class cint_string const &,char *))
                  ?SetStrValue@Object@Udm_VS10@@QAE_NV?$basic_string@DU?$char_traits@D@std@@V?$allocator@D@2@@std@@ABV34@@Z (public: bool __thiscall Udm_VS10::Object::SetStrValue(class std::basic_string<char,struct std::char_traits<char>,class std::allocator<char> >,class std::basic_string<char,struct std::char_traits<char>,class std::allocator<char> > const &))
                  ?SetStrValue@Object@Udm_VS10@@QAE_NV?$basic_string@DU?$char_traits@D@std@@V?$allocator@D@2@@std@@AB_J@Z (public: bool __thiscall Udm_VS10::Object::SetStrValue(class std::basic_string<char,struct std::char_traits<char>,class std::allocator<char> >,__int64 const &))
                  ?SetStrValues@Object@Udm_VS10@@QAE_NV?$basic_string@DU?$char_traits@D@std@@V?$allocator@D@2@@std@@ABV?$vector@V?$basic_string@DU?$char_traits@D@std@@V?$allocator@D@2@@std@@V?$allocator@V?$basic_string@DU?$char_traits@D@std@@V?$allocator@D@2@@std@@@2@@4@@Z (public: bool __thiscall Udm_VS10::Object::SetStrValues(class std::basic_string<char,struct std::char_traits<char>,class std::allocator<char> >,class std::vector<class std::basic_string<char,struct std::char_traits<char>,class std::allocator<char> >,class std::allocator<class std::basic_string<char,struct std::char_traits<char>,class std::allocator<char> > > > const &))
                  ?SortStrArrAttr@Udm_VS10@@YA?AV?$vector@V?$basic_string@DU?$char_traits@D@std@@V?$allocator@D@2@@std@@V?$allocator@V?$basic_string@DU?$char_traits@D@std@@V?$allocator@D@2@@std@@@2@@std@@ABV23@@Z (class std::vector<class std::basic_string<char,struct std::char_traits<char>,class std::allocator<char> >,class std::allocator<class std::basic_string<char,struct std::char_traits<char>,class std::allocator<char> > > > __cdecl Udm_VS10::SortStrArrAttr(class std::vector<class std::basic_string<char,struct std::char_traits<char>,class std::allocator<char> >,class std::allocator<class std::basic_string<char,struct std::char_traits<char>,class std::allocator<char> > > > const &))
                  ?StoreDiagram@MetaDepository@Udm_VS10@@SA_NABV?$basic_string@DU?$char_traits@D@std@@V?$allocator@D@2@@std@@ABUUdmDiagram@2@@Z (public: static bool __cdecl Udm_VS10::MetaDepository::StoreDiagram(class std::basic_string<char,struct std::char_traits<char>,class std::allocator<char> > const &,struct Udm_VS10::UdmDiagram const &))
                  ?Str@DataNetwork@Udm_VS10@@UAEABV?$basic_string@DU?$char_traits@D@std@@V?$allocator@D@2@@std@@XZ (public: virtual class std::basic_string<char,struct std::char_traits<char>,class std::allocator<char> > const & __thiscall Udm_VS10::DataNetwork::Str(void))
                  ?Str@DomDataNetwork@UdmDom@@UAEABV?$basic_string@DU?$char_traits@D@std@@V?$allocator@D@2@@std@@XZ (public: virtual class std::basic_string<char,struct std::char_traits<char>,class std::allocator<char> > const & __thiscall UdmDom::DomDataNetwork::Str(void))
                  ?StrToBoolArrAttr@Udm_VS10@@YA?AV?$vector@_NV?$allocator@_N@std@@@std@@ABV?$vector@V?$basic_string@DU?$char_traits@D@std@@V?$allocator@D@2@@std@@V?$allocator@V?$basic_string@DU?$char_traits@D@std@@V?$allocator@D@2@@std@@@2@@3@@Z (class std::vector<bool,class std::allocator<bool> > __cdecl Udm_VS10::StrToBoolArrAttr(class std::vector<class std::basic_string<char,struct std::char_traits<char>,class std::allocator<char> >,class std::allocator<class std::basic_string<char,struct std::char_traits<char>,class std::allocator<char> > > > const &))
                  ?StrToLongArrAttr@Udm_VS10@@YA?AV?$vector@_JV?$allocator@_J@std@@@std@@ABV?$vector@V?$basic_string@DU?$char_traits@D@std@@V?$allocator@D@2@@std@@V?$allocator@V?$basic_string@DU?$char_traits@D@std@@V?$allocator@D@2@@std@@@2@@3@@Z (class std::vector<__int64,class std::allocator<__int64> > __cdecl Udm_VS10::StrToLongArrAttr(class std::vector<class std::basic_string<char,struct std::char_traits<char>,class std::allocator<char> >,class std::allocator<class std::basic_string<char,struct std::char_traits<char>,class std::allocator<char> > > > const &))
                  ?StrToRealArrAttr@Udm_VS10@@YA?AV?$vector@NV?$allocator@N@std@@@std@@ABV?$vector@V?$basic_string@DU?$char_traits@D@std@@V?$allocator@D@2@@std@@V?$allocator@V?$basic_string@DU?$char_traits@D@std@@V?$allocator@D@2@@std@@@2@@3@@Z (class std::vector<double,class std::allocator<double> > __cdecl Udm_VS10::StrToRealArrAttr(class std::vector<class std::basic_string<char,struct std::char_traits<char>,class std::allocator<char> >,class std::allocator<class std::basic_string<char,struct std::char_traits<char>,class std::allocator<char> > > > const &))
                  ?TaggedValue_kind_children@Association@Uml@@QBE?AV?$ChildrenAttr@VTaggedValue@Uml@@U?$less@VTaggedValue@Uml@@@std@@@Udm_VS10@@XZ (public: class Udm_VS10::ChildrenAttr<class Uml::TaggedValue,struct std::less<class Uml::TaggedValue> > __thiscall Uml::Association::TaggedValue_kind_children(void)const )
                  ?TaggedValue_kind_children@Class@Uml@@QBE?AV?$ChildrenAttr@VTaggedValue@Uml@@U?$less@VTaggedValue@Uml@@@std@@@Udm_VS10@@XZ (public: class Udm_VS10::ChildrenAttr<class Uml::TaggedValue,struct std::less<class Uml::TaggedValue> > __thiscall Uml::Class::TaggedValue_kind_children(void)const )
                  ?TextAttributes@Uml@@YA?AV?$set@VAttribute@Uml@@U?$less@VAttribute@Uml@@@std@@V?$allocator@VAttribute@Uml@@@4@@std@@ABVClass@1@@Z (class std::set<class Uml::Attribute,struct std::less<class Uml::Attribute>,class std::allocator<class Uml::Attribute> > __cdecl Uml::TextAttributes(class Uml::Class const &))
                  ?Udm2Gme@UdmGme@@YAPAUIUnknown@@ABVObject@Udm_VS10@@@Z (struct IUnknown * __cdecl UdmGme::Udm2Gme(class Udm_VS10::Object const &))
                  ?UdmId2GmeId@UdmGme@@YA?AV?$basic_string@DU?$char_traits@D@std@@V?$allocator@D@2@@std@@J@Z (class std::basic_string<char,struct std::char_traits<char>,class std::allocator<char> > __cdecl UdmGme::UdmId2GmeId(long))
                  ?UnInitialize@Ocl@@YAXABVDiagram@Uml@@@Z (void __cdecl Ocl::UnInitialize(class Uml::Diagram const &))
                  ?UnInitialize@Ocl@@YAXXZ (void __cdecl Ocl::UnInitialize(void))
                  ?UnRegisterBackends@DataNetwork@Udm_VS10@@SAXXZ (public: static void __cdecl Udm_VS10::DataNetwork::UnRegisterBackends(void))
                  ?ValidateIDs@StaticUdmProject@Udm_VS10@@UAEXABV?$basic_string@DU?$char_traits@D@std@@V?$allocator@D@2@@std@@ABV?$map@$$CBK$$CBKU?$less@$$CBK@std@@V?$allocator@U?$pair@$$CBK$$CBK@std@@@2@@4@@Z (public: virtual void __thiscall Udm_VS10::StaticUdmProject::ValidateIDs(class std::basic_string<char,struct std::char_traits<char>,class std::allocator<char> > const &,class std::map<unsigned long const ,unsigned long const ,struct std::less<unsigned long const >,class std::allocator<struct std::pair<unsigned long const ,unsigned long const > > > const &))
                  ?ValidateIDs@UdmProject@Udm_VS10@@UAEXABV?$basic_string@DU?$char_traits@D@std@@V?$allocator@D@2@@std@@ABV?$map@$$CBK$$CBKU?$less@$$CBK@std@@V?$allocator@U?$pair@$$CBK$$CBK@std@@@2@@4@@Z (public: virtual void __thiscall Udm_VS10::UdmProject::ValidateIDs(class std::basic_string<char,struct std::char_traits<char>,class std::allocator<char> > const &,class std::map<unsigned long const ,unsigned long const ,struct std::less<unsigned long const >,class std::allocator<struct std::pair<unsigned long const ,unsigned long const > > > const &))
                  ?Visit___BaseVisitor@BaseVisitor@Udm_VS10@@UAEXABV12@@Z (public: virtual void __thiscall Udm_VS10::BaseVisitor::Visit___BaseVisitor(class Udm_VS10::BaseVisitor const &))
                  ?__Cast@Object@Udm_VS10@@KAPAVObjectImpl@2@$$QAV12@ABVClass@Uml@@@Z (protected: static class Udm_VS10::ObjectImpl * __cdecl Udm_VS10::Object::__Cast(class Udm_VS10::Object &&,class Uml::Class const &))
                  ?__Cast@Object@Udm_VS10@@KAPAVObjectImpl@2@ABV12@ABVClass@Uml@@@Z (protected: static class Udm_VS10::ObjectImpl * __cdecl Udm_VS10::Object::__Cast(class Udm_VS10::Object const &,class Uml::Class const &))
                  ?__Create@Object@Udm_VS10@@KAPAVObjectImpl@2@ABVClass@Uml@@ABV12@ABVCompositionChildRole@5@PBV32@_N@Z (protected: static class Udm_VS10::ObjectImpl * __cdecl Udm_VS10::Object::__Create(class Uml::Class const &,class Udm_VS10::Object const &,class Uml::CompositionChildRole const &,class Udm_VS10::ObjectImpl const *,bool))
                  ?__impl@Object@Udm_VS10@@QBEPAVObjectImpl@2@XZ (public: class Udm_VS10::ObjectImpl * __thiscall Udm_VS10::Object::__impl(void)const )
                  ?_null@Udm_VS10@@3VNullObject@1@A (class Udm_VS10::NullObject Udm_VS10::_null)
                  ?archetype@Object@Udm_VS10@@QBE?AV12@XZ (public: class Udm_VS10::Object __thiscall Udm_VS10::Object::archetype(void)const )
                  ?assocClass@Association@Uml@@QBE?AV?$PointerAttr@VClass@Uml@@@Udm_VS10@@XZ (public: class Udm_VS10::PointerAttr<class Uml::Class> __thiscall Uml::Association::assocClass(void)const )
                  ?assocClassByName@Uml@@YA?AVClass@1@ABVDiagram@1@ABV?$basic_string@DU?$char_traits@D@std@@V?$allocator@D@2@@std@@@Z (class Uml::Class __cdecl Uml::assocClassByName(class Uml::Diagram const &,class std::basic_string<char,struct std::char_traits<char>,class std::allocator<char> > const &))
                  ?assocClassByName@Uml@@YA?AVClass@1@ABVNamespace@1@ABV?$basic_string@DU?$char_traits@D@std@@V?$allocator@D@2@@std@@@Z (class Uml::Class __cdecl Uml::assocClassByName(class Uml::Namespace const &,class std::basic_string<char,struct std::char_traits<char>,class std::allocator<char> > const &))
                  ?assocParent@TaggedValue@Uml@@QBE?AV?$ParentAttr@VAssociation@Uml@@@Udm_VS10@@XZ (public: class Udm_VS10::ParentAttr<class Uml::Association> __thiscall Uml::TaggedValue::assocParent(void)const )
                  ?association@Class@Uml@@QBE?AV?$PointerAttr@VAssociation@Uml@@@Udm_VS10@@XZ (public: class Udm_VS10::PointerAttr<class Uml::Association> __thiscall Uml::Class::association(void)const )
                  ?associationByName@Uml@@YA?AVAssociation@1@ABVDiagram@1@ABV?$basic_string@DU?$char_traits@D@std@@V?$allocator@D@2@@std@@@Z (class Uml::Association __cdecl Uml::associationByName(class Uml::Diagram const &,class std::basic_string<char,struct std::char_traits<char>,class std::allocator<char> > const &))
                  ?associationByName@Uml@@YA?AVAssociation@1@ABVNamespace@1@ABV?$basic_string@DU?$char_traits@D@std@@V?$allocator@D@2@@std@@@Z (class Uml::Association __cdecl Uml::associationByName(class Uml::Namespace const &,class std::basic_string<char,struct std::char_traits<char>,class std::allocator<char> > const &))
                  ?associationRoles@Class@Uml@@QBE?AV?$AssocAttr@VAssociationRole@Uml@@U?$less@VAssociationRole@Uml@@@std@@@Udm_VS10@@XZ (public: class Udm_VS10::AssocAttr<class Uml::AssociationRole,struct std::less<class Uml::AssociationRole> > __thiscall Uml::Class::associationRoles(void)const )
                  ?associations@Diagram@Uml@@QBE?AV?$ChildrenAttr@VAssociation@Uml@@U?$less@VAssociation@Uml@@@std@@@Udm_VS10@@XZ (public: class Udm_VS10::ChildrenAttr<class Uml::Association,struct std::less<class Uml::Association> > __thiscall Uml::Diagram::associations(void)const )
                  ?associations@Namespace@Uml@@QBE?AV?$ChildrenAttr@VAssociation@Uml@@U?$less@VAssociation@Uml@@@std@@@Udm_VS10@@XZ (public: class Udm_VS10::ChildrenAttr<class Uml::Association,struct std::less<class Uml::Association> > __thiscall Uml::Namespace::associations(void)const )
                  ?attributes@Class@Uml@@QBE?AV?$ChildrenAttr@VAttribute@Uml@@U?$less@VAttribute@Uml@@@std@@@Udm_VS10@@XZ (public: class Udm_VS10::ChildrenAttr<class Uml::Attribute,struct std::less<class Uml::Attribute> > __thiscall Uml::Class::attributes(void)const )
                  ?baseTypes@Class@Uml@@QBE?AV?$AssocAttr@VClass@Uml@@U?$less@VClass@Uml@@@std@@@Udm_VS10@@XZ (public: class Udm_VS10::AssocAttr<class Uml::Class,struct std::less<class Uml::Class> > __thiscall Uml::Class::baseTypes(void)const )
                  ?begin@?$ElemCollection@VDiagram@Uml@@VAssociation@2@@Uml@@QAE?AViterator@12@XZ (public: class Uml::ElemCollection<class Uml::Diagram,class Uml::Association>::iterator __thiscall Uml::ElemCollection<class Uml::Diagram,class Uml::Association>::begin(void))
                  ?begin@?$ElemCollection@VDiagram@Uml@@VClass@2@@Uml@@QAE?AViterator@12@XZ (public: class Uml::ElemCollection<class Uml::Diagram,class Uml::Class>::iterator __thiscall Uml::ElemCollection<class Uml::Diagram,class Uml::Class>::begin(void))
                  ?begin@?$ElemCollection@VDiagram@Uml@@VComposition@2@@Uml@@QAE?AViterator@12@XZ (public: class Uml::ElemCollection<class Uml::Diagram,class Uml::Composition>::iterator __thiscall Uml::ElemCollection<class Uml::Diagram,class Uml::Composition>::begin(void))
                  ?begin@?$ElemCollection@VNamespace@Uml@@VAssociation@2@@Uml@@QAE?AViterator@12@XZ (public: class Uml::ElemCollection<class Uml::Namespace,class Uml::Association>::iterator __thiscall Uml::ElemCollection<class Uml::Namespace,class Uml::Association>::begin(void))
                  ?begin@?$ElemCollection@VNamespace@Uml@@VClass@2@@Uml@@QAE?AViterator@12@XZ (public: class Uml::ElemCollection<class Uml::Namespace,class Uml::Class>::iterator __thiscall Uml::ElemCollection<class Uml::Namespace,class Uml::Class>::begin(void))
                  ?begin@?$ElemCollection@VNamespace@Uml@@VComposition@2@@Uml@@QAE?AViterator@12@XZ (public: class Uml::ElemCollection<class Uml::Namespace,class Uml::Composition>::iterator __thiscall Uml::ElemCollection<class Uml::Namespace,class Uml::Composition>::begin(void))
                  ?begin@?$NamespaceCollection@VDiagram@Uml@@@Uml@@QAE?AViterator@12@XZ (public: class Uml::NamespaceCollection<class Uml::Diagram>::iterator __thiscall Uml::NamespaceCollection<class Uml::Diagram>::begin(void))
                  ?begin@?$NamespaceCollection@VNamespace@Uml@@@Uml@@QAE?AViterator@12@XZ (public: class Uml::NamespaceCollection<class Uml::Namespace>::iterator __thiscall Uml::NamespaceCollection<class Uml::Namespace>::begin(void))
                  ?buffer@cint_string@@QBEPADXZ (public: char * __thiscall cint_string::buffer(void)const )
                  ?childRole@Composition@Uml@@QBE?AV?$ChildAttr@VCompositionChildRole@Uml@@@Udm_VS10@@XZ (public: class Udm_VS10::ChildAttr<class Uml::CompositionChildRole> __thiscall Uml::Composition::childRole(void)const )
                  ?childRoles@Class@Uml@@QBE?AV?$AssocAttr@VCompositionChildRole@Uml@@U?$less@VCompositionChildRole@Uml@@@std@@@Udm_VS10@@XZ (public: class Udm_VS10::AssocAttr<class Uml::CompositionChildRole,struct std::less<class Uml::CompositionChildRole> > __thiscall Uml::Class::childRoles(void)const )
                  ?classByName@Uml@@YA?AVClass@1@ABVDiagram@1@ABV?$basic_string@DU?$char_traits@D@std@@V?$allocator@D@2@@std@@11@Z (class Uml::Class __cdecl Uml::classByName(class Uml::Diagram const &,class std::basic_string<char,struct std::char_traits<char>,class std::allocator<char> > const &,class std::basic_string<char,struct std::char_traits<char>,class std::allocator<char> > const &,class std::basic_string<char,struct std::char_traits<char>,class std::allocator<char> > const &))
                  ?classByName@Uml@@YA?AVClass@1@ABVDiagram@1@ABV?$basic_string@DU?$char_traits@D@std@@V?$allocator@D@2@@std@@@Z (class Uml::Class __cdecl Uml::classByName(class Uml::Diagram const &,class std::basic_string<char,struct std::char_traits<char>,class std::allocator<char> > const &))
                  ?classByName@Uml@@YA?AVClass@1@ABVNamespace@1@ABV?$basic_string@DU?$char_traits@D@std@@V?$allocator@D@2@@std@@@Z (class Uml::Class __cdecl Uml::classByName(class Uml::Namespace const &,class std::basic_string<char,struct std::char_traits<char>,class std::allocator<char> > const &))
                  ?classByPath@Uml@@YA?AVClass@1@ABVDiagram@1@ABV?$basic_string@DU?$char_traits@D@std@@V?$allocator@D@2@@std@@1@Z (class Uml::Class __cdecl Uml::classByPath(class Uml::Diagram const &,class std::basic_string<char,struct std::char_traits<char>,class std::allocator<char> > const &,class std::basic_string<char,struct std::char_traits<char>,class std::allocator<char> > const &))
                  ?classParent@TaggedValue@Uml@@QBE?AV?$ParentAttr@VClass@Uml@@@Udm_VS10@@XZ (public: class Udm_VS10::ParentAttr<class Uml::Class> __thiscall Uml::TaggedValue::classParent(void)const )
                  ?classes@Diagram@Uml@@QBE?AV?$ChildrenAttr@VClass@Uml@@U?$less@VClass@Uml@@@std@@@Udm_VS10@@XZ (public: class Udm_VS10::ChildrenAttr<class Uml::Class,struct std::less<class Uml::Class> > __thiscall Uml::Diagram::classes(void)const )
                  ?classes@Namespace@Uml@@QBE?AV?$ChildrenAttr@VClass@Uml@@U?$less@VClass@Uml@@@std@@@Udm_VS10@@XZ (public: class Udm_VS10::ChildrenAttr<class Uml::Class,struct std::less<class Uml::Class> > __thiscall Uml::Namespace::classes(void)const )
                  ?comp@cint_string@@QBEHPBD@Z (public: int __thiscall cint_string::comp(char const *)const )
                  ?compositionByName@Uml@@YA?AVComposition@1@ABVDiagram@1@ABV?$basic_string@DU?$char_traits@D@std@@V?$allocator@D@2@@std@@@Z (class Uml::Composition __cdecl Uml::compositionByName(class Uml::Diagram const &,class std::basic_string<char,struct std::char_traits<char>,class std::allocator<char> > const &))
                  ?compositionByName@Uml@@YA?AVComposition@1@ABVNamespace@1@ABV?$basic_string@DU?$char_traits@D@std@@V?$allocator@D@2@@std@@@Z (class Uml::Composition __cdecl Uml::compositionByName(class Uml::Namespace const &,class std::basic_string<char,struct std::char_traits<char>,class std::allocator<char> > const &))
                  ?compositions@Diagram@Uml@@QBE?AV?$ChildrenAttr@VComposition@Uml@@U?$less@VComposition@Uml@@@std@@@Udm_VS10@@XZ (public: class Udm_VS10::ChildrenAttr<class Uml::Composition,struct std::less<class Uml::Composition> > __thiscall Uml::Diagram::compositions(void)const )
                  ?compositions@Namespace@Uml@@QBE?AV?$ChildrenAttr@VComposition@Uml@@U?$less@VComposition@Uml@@@std@@@Udm_VS10@@XZ (public: class Udm_VS10::ChildrenAttr<class Uml::Composition,struct std::less<class Uml::Composition> > __thiscall Uml::Namespace::compositions(void)const )
                  ?connectTo@Object@Udm_VS10@@QAEXABVAssociationRole@Uml@@ABV12@ABV?$vector@VObject@Udm_VS10@@V?$allocator@VObject@Udm_VS10@@@std@@@std@@@Z (public: void __thiscall Udm_VS10::Object::connectTo(class Uml::AssociationRole const &,class Udm_VS10::Object const &,class std::vector<class Udm_VS10::Object,class std::allocator<class Udm_VS10::Object> > const &))
                  ?connectTo@ObjectImpl@Udm_VS10@@UAEXABVAssociationRole@Uml@@PAV12@ABV?$vector@PAVObjectImpl@Udm_VS10@@V?$allocator@PAVObjectImpl@Udm_VS10@@@std@@@std@@@Z (public: virtual void __thiscall Udm_VS10::ObjectImpl::connectTo(class Uml::AssociationRole const &,class Udm_VS10::ObjectImpl *,class std::vector<class Udm_VS10::ObjectImpl *,class std::allocator<class Udm_VS10::ObjectImpl *> > const &))
                  ?constraints@Class@Uml@@QBE?AV?$ChildrenAttr@VConstraint@Uml@@U?$less@VConstraint@Uml@@@std@@@Udm_VS10@@XZ (public: class Udm_VS10::ChildrenAttr<class Uml::Constraint,struct std::less<class Uml::Constraint> > __thiscall Uml::Class::constraints(void)const )
                  ?constraints@Evaluator@Ocl@@QBEAAV?$set@VConstraint@Uml@@U?$less@VConstraint@Uml@@@std@@V?$allocator@VConstraint@Uml@@@4@@std@@XZ (public: class std::set<class Uml::Constraint,struct std::less<class Uml::Constraint>,class std::allocator<class Uml::Constraint> > & __thiscall Ocl::Evaluator::constraints(void)const )
                  ?container@Object@Udm_VS10@@QBE?AV12@XZ (public: class Udm_VS10::Object __thiscall Udm_VS10::Object::container(void)const )
                  ?definitions@Class@Uml@@QBE?AV?$ChildrenAttr@VConstraintDefinition@Uml@@U?$less@VConstraintDefinition@Uml@@@std@@@Udm_VS10@@XZ (public: class Udm_VS10::ChildrenAttr<class Uml::ConstraintDefinition,struct std::less<class Uml::ConstraintDefinition> > __thiscall Uml::Class::definitions(void)const )
                  ?defvalue@Attribute@Uml@@QBE?AVStringAttrArr@Udm_VS10@@XZ (public: class Udm_VS10::StringAttrArr __thiscall Uml::Attribute::defvalue(void)const )
                  ?depth_level@Object@Udm_VS10@@QBEHXZ (public: int __thiscall Udm_VS10::Object::depth_level(void)const )
                  ?derived@Object@Udm_VS10@@QBE?AV?$set@VObject@Udm_VS10@@U?$less@VObject@Udm_VS10@@@std@@V?$allocator@VObject@Udm_VS10@@@4@@std@@XZ (public: class std::set<class Udm_VS10::Object,struct std::less<class Udm_VS10::Object>,class std::allocator<class Udm_VS10::Object> > __thiscall Udm_VS10::Object::derived(void)const )
                  ?description@Constraint@Uml@@QBE?AVStringAttr@Udm_VS10@@XZ (public: class Udm_VS10::StringAttr __thiscall Uml::Constraint::description(void)const )
                  ?diagram@Uml@@3UUdmDiagram@Udm_VS10@@A (struct Udm_VS10::UdmDiagram Uml::diagram)
                  ?diagramByName@Uml@@YA?AVDiagram@1@ABV21@ABV?$basic_string@DU?$char_traits@D@std@@V?$allocator@D@2@@std@@@Z (class Uml::Diagram __cdecl Uml::diagramByName(class Uml::Diagram const &,class std::basic_string<char,struct std::char_traits<char>,class std::allocator<char> > const &))
                  ?disconnectFrom@Object@Udm_VS10@@QAEXABVAssociationRole@Uml@@ABV12@@Z (public: void __thiscall Udm_VS10::Object::disconnectFrom(class Uml::AssociationRole const &,class Udm_VS10::Object const &))
                  ?disconnectFrom@ObjectImpl@Udm_VS10@@UAEXABVAssociationRole@Uml@@PAV12@@Z (public: virtual void __thiscall Udm_VS10::ObjectImpl::disconnectFrom(class Uml::AssociationRole const &,class Udm_VS10::ObjectImpl *))
                  ?doubleToString@UdmUtil@@YA?AV?$basic_string@DU?$char_traits@D@std@@V?$allocator@D@2@@std@@NH@Z (class std::basic_string<char,struct std::char_traits<char>,class std::allocator<char> > __cdecl UdmUtil::doubleToString(double,int))
                  ?end@?$ElemCollection@VDiagram@Uml@@VAssociation@2@@Uml@@QAE?AViterator@12@XZ (public: class Uml::ElemCollection<class Uml::Diagram,class Uml::Association>::iterator __thiscall Uml::ElemCollection<class Uml::Diagram,class Uml::Association>::end(void))
                  ?end@?$ElemCollection@VDiagram@Uml@@VClass@2@@Uml@@QAE?AViterator@12@XZ (public: class Uml::ElemCollection<class Uml::Diagram,class Uml::Class>::iterator __thiscall Uml::ElemCollection<class Uml::Diagram,class Uml::Class>::end(void))
                  ?end@?$ElemCollection@VDiagram@Uml@@VComposition@2@@Uml@@QAE?AViterator@12@XZ (public: class Uml::ElemCollection<class Uml::Diagram,class Uml::Composition>::iterator __thiscall Uml::ElemCollection<class Uml::Diagram,class Uml::Composition>::end(void))
                  ?end@?$ElemCollection@VNamespace@Uml@@VAssociation@2@@Uml@@QAE?AViterator@12@XZ (public: class Uml::ElemCollection<class Uml::Namespace,class Uml::Association>::iterator __thiscall Uml::ElemCollection<class Uml::Namespace,class Uml::Association>::end(void))
                  ?end@?$ElemCollection@VNamespace@Uml@@VClass@2@@Uml@@QAE?AViterator@12@XZ (public: class Uml::ElemCollection<class Uml::Namespace,class Uml::Class>::iterator __thiscall Uml::ElemCollection<class Uml::Namespace,class Uml::Class>::end(void))
                  ?end@?$ElemCollection@VNamespace@Uml@@VComposition@2@@Uml@@QAE?AViterator@12@XZ (public: class Uml::ElemCollection<class Uml::Namespace,class Uml::Composition>::iterator __thiscall Uml::ElemCollection<class Uml::Namespace,class Uml::Composition>::end(void))
                  ?end@?$NamespaceCollection@VDiagram@Uml@@@Uml@@QAE?AViterator@12@XZ (public: class Uml::NamespaceCollection<class Uml::Diagram>::iterator __thiscall Uml::NamespaceCollection<class Uml::Diagram>::end(void))
                  ?end@?$NamespaceCollection@VNamespace@Uml@@@Uml@@QAE?AViterator@12@XZ (public: class Uml::NamespaceCollection<class Uml::Namespace>::iterator __thiscall Uml::NamespaceCollection<class Uml::Namespace>::end(void))
                  ?escape_chars@UdmUtil@@YA?AV?$basic_string@DU?$char_traits@D@std@@V?$allocator@D@2@@std@@ABV23@D0@Z (class std::basic_string<char,struct std::char_traits<char>,class std::allocator<char> > __cdecl UdmUtil::escape_chars(class std::basic_string<char,struct std::char_traits<char>,class std::allocator<char> > const &,char,class std::basic_string<char,struct std::char_traits<char>,class std::allocator<char> > const &))
                  ?expression@Constraint@Uml@@QBE?AVStringAttr@Udm_VS10@@XZ (public: class Udm_VS10::StringAttr __thiscall Uml::Constraint::expression(void)const )
                  ?expression@ConstraintDefinition@Uml@@QBE?AVStringAttr@Udm_VS10@@XZ (public: class Udm_VS10::StringAttr __thiscall Uml::ConstraintDefinition::expression(void)const )
                  ?filename@DataNetworkSpecifier@Udm_VS10@@QAE?BV?$basic_string@DU?$char_traits@D@std@@V?$allocator@D@2@@std@@XZ (public: class std::basic_string<char,struct std::char_traits<char>,class std::allocator<char> > const __thiscall Udm_VS10::DataNetworkSpecifier::filename(void))
                  ?filename@StaticDataNetworkSpecifier@Udm_VS10@@QAE?BV?$basic_string@DU?$char_traits@D@std@@V?$allocator@D@2@@std@@XZ (public: class std::basic_string<char,struct std::char_traits<char>,class std::allocator<char> > const __thiscall Udm_VS10::StaticDataNetworkSpecifier::filename(void))
                  ?from@Class@Uml@@QBE?AVStringAttr@Udm_VS10@@XZ (public: class Udm_VS10::StringAttr __thiscall Uml::Class::from(void)const )
                  ?getAssociation@Object@Udm_VS10@@QBE?AV?$set@VObject@Udm_VS10@@U?$less@VObject@Udm_VS10@@@std@@V?$allocator@VObject@Udm_VS10@@@4@@std@@ABVAssociationRole@Uml@@H@Z (public: class std::set<class Udm_VS10::Object,struct std::less<class Udm_VS10::Object>,class std::allocator<class Udm_VS10::Object> > __thiscall Udm_VS10::Object::getAssociation(class Uml::AssociationRole const &,int)const )
                  ?getAttrStatus@Object@Udm_VS10@@QBEJABVAttribute@Uml@@@Z (public: long __thiscall Udm_VS10::Object::getAttrStatus(class Uml::Attribute const &)const )
                  ?getBooleanAttr@Object@Udm_VS10@@QBE_NABVAttribute@Uml@@@Z (public: bool __thiscall Udm_VS10::Object::getBooleanAttr(class Uml::Attribute const &)const )
                  ?getBooleanAttrArr@Object@Udm_VS10@@QBE?AV?$vector@_NV?$allocator@_N@std@@@std@@ABVAttribute@Uml@@@Z (public: class std::vector<bool,class std::allocator<bool> > __thiscall Udm_VS10::Object::getBooleanAttrArr(class Uml::Attribute const &)const )
                  ?getBooleanAttrArr@ObjectImpl@Udm_VS10@@UBE?AV?$vector@_NV?$allocator@_N@std@@@std@@ABVAttribute@Uml@@@Z (public: virtual class std::vector<bool,class std::allocator<bool> > __thiscall Udm_VS10::ObjectImpl::getBooleanAttrArr(class Uml::Attribute const &)const )
                  ?getChildrenByChildRoleChain@Object@Udm_VS10@@QBE?AV?$set@VObject@Udm_VS10@@U?$less@VObject@Udm_VS10@@@std@@V?$allocator@VObject@Udm_VS10@@@4@@std@@ABVClass@Uml@@V?$vector@VCompositionChildRole@Uml@@V?$allocator@VCompositionChildRole@Uml@@@std@@@4@@Z (public: class std::set<class Udm_VS10::Object,struct std::less<class Udm_VS10::Object>,class std::allocator<class Udm_VS10::Object> > __thiscall Udm_VS10::Object::getChildrenByChildRoleChain(class Uml::Class const &,class std::vector<class Uml::CompositionChildRole,class std::allocator<class Uml::CompositionChildRole> >)const )
                  ?getConnectingChain@Object@Udm_VS10@@QBE?AV?$vector@VObject@Udm_VS10@@V?$allocator@VObject@Udm_VS10@@@std@@@std@@ABVAssociationRole@Uml@@ABV12@@Z (public: class std::vector<class Udm_VS10::Object,class std::allocator<class Udm_VS10::Object> > __thiscall Udm_VS10::Object::getConnectingChain(class Uml::AssociationRole const &,class Udm_VS10::Object const &)const )
                  ?getConnectingChain@ObjectImpl@Udm_VS10@@UBE?AV?$vector@PAVObjectImpl@Udm_VS10@@V?$allocator@PAVObjectImpl@Udm_VS10@@@std@@@std@@ABVAssociationRole@Uml@@PBV12@@Z (public: virtual class std::vector<class Udm_VS10::ObjectImpl *,class std::allocator<class Udm_VS10::ObjectImpl *> > __thiscall Udm_VS10::ObjectImpl::getConnectingChain(class Uml::AssociationRole const &,class Udm_VS10::ObjectImpl const *)const )
                  ?getDerivedObjectInPrimarilyDerivedBlock@Object@Udm_VS10@@QBE?AV12@ABV12@@Z (public: class Udm_VS10::Object __thiscall Udm_VS10::Object::getDerivedObjectInPrimarilyDerivedBlock(class Udm_VS10::Object const &)const )
                  ?getDerivedObjectInTree@Object@Udm_VS10@@QBE?AV12@ABV12@@Z (public: class Udm_VS10::Object __thiscall Udm_VS10::Object::getDerivedObjectInTree(class Udm_VS10::Object const &)const )
                  ?getDstObject@Object@Udm_VS10@@QAE?AV12@XZ (public: class Udm_VS10::Object __thiscall Udm_VS10::Object::getDstObject(void))
                  ?getEnd@UdmProject@Udm_VS10@@QAE?AVObject@2@AAV32@ABVAssociationRole@Uml@@@Z (public: class Udm_VS10::Object __thiscall Udm_VS10::UdmProject::getEnd(class Udm_VS10::Object &,class Uml::AssociationRole const &))
                  ?getInstantiatedObjectInPrimarilyDerivedBlock@Object@Udm_VS10@@QBE?AV12@ABV12@@Z (public: class Udm_VS10::Object __thiscall Udm_VS10::Object::getInstantiatedObjectInPrimarilyDerivedBlock(class Udm_VS10::Object const &)const )
                  ?getInstantiatedObjectInTree@Object@Udm_VS10@@QBE?AV12@ABV12@@Z (public: class Udm_VS10::Object __thiscall Udm_VS10::Object::getInstantiatedObjectInTree(class Udm_VS10::Object const &)const )
                  ?getIntegerAttr@Object@Udm_VS10@@QBE_JABVAttribute@Uml@@@Z (public: __int64 __thiscall Udm_VS10::Object::getIntegerAttr(class Uml::Attribute const &)const )
                  ?getIntegerAttrArr@Object@Udm_VS10@@QBE?AV?$vector@_JV?$allocator@_J@std@@@std@@ABVAttribute@Uml@@@Z (public: class std::vector<__int64,class std::allocator<__int64> > __thiscall Udm_VS10::Object::getIntegerAttrArr(class Uml::Attribute const &)const )
                  ?getIntegerAttrArr@ObjectImpl@Udm_VS10@@UBE?AV?$vector@_JV?$allocator@_J@std@@@std@@ABVAttribute@Uml@@@Z (public: virtual class std::vector<__int64,class std::allocator<__int64> > __thiscall Udm_VS10::ObjectImpl::getIntegerAttrArr(class Uml::Attribute const &)const )
                  ?getLibraryName@Object@Udm_VS10@@UBE_NAAV?$basic_string@DU?$char_traits@D@std@@V?$allocator@D@2@@std@@@Z (public: virtual bool __thiscall Udm_VS10::Object::getLibraryName(class std::basic_string<char,struct std::char_traits<char>,class std::allocator<char> > &)const )
                  ?getLinks@UdmProject@Udm_VS10@@QAE?AV?$set@VObject@Udm_VS10@@U?$less@VObject@Udm_VS10@@@std@@V?$allocator@VObject@Udm_VS10@@@4@@std@@AAVObject@2@ABVAssociationRole@Uml@@@Z (public: class std::set<class Udm_VS10::Object,struct std::less<class Udm_VS10::Object>,class std::allocator<class Udm_VS10::Object> > __thiscall Udm_VS10::UdmProject::getLinks(class Udm_VS10::Object &,class Uml::AssociationRole const &))
                  ?getPath2@Object@Udm_VS10@@QBE?AV?$basic_string@DU?$char_traits@D@std@@V?$allocator@D@2@@std@@ABV34@_N@Z (public: class std::basic_string<char,struct std::char_traits<char>,class std::allocator<char> > __thiscall Udm_VS10::Object::getPath2(class std::basic_string<char,struct std::char_traits<char>,class std::allocator<char> > const &,bool)const )
                  ?getPath@Object@Udm_VS10@@QBE?AV?$basic_string@DU?$char_traits@D@std@@V?$allocator@D@2@@std@@ABV34@_N101@Z (public: class std::basic_string<char,struct std::char_traits<char>,class std::allocator<char> > __thiscall Udm_VS10::Object::getPath(class std::basic_string<char,struct std::char_traits<char>,class std::allocator<char> > const &,bool,bool,class std::basic_string<char,struct std::char_traits<char>,class std::allocator<char> > const &,bool)const )
                  ?getPath@ObjectImpl@Udm_VS10@@UBE?AV?$basic_string@DU?$char_traits@D@std@@V?$allocator@D@2@@std@@ABV34@_N@Z (public: virtual class std::basic_string<char,struct std::char_traits<char>,class std::allocator<char> > __thiscall Udm_VS10::ObjectImpl::getPath(class std::basic_string<char,struct std::char_traits<char>,class std::allocator<char> > const &,bool)const )
                  ?getPeer@UdmProject@Udm_VS10@@QAE?AVObject@2@AAV32@ABVAssociationRole@Uml@@@Z (public: class Udm_VS10::Object __thiscall Udm_VS10::UdmProject::getPeer(class Udm_VS10::Object &,class Uml::AssociationRole const &))
                  ?getRealAttr@Object@Udm_VS10@@QBENABVAttribute@Uml@@@Z (public: double __thiscall Udm_VS10::Object::getRealAttr(class Uml::Attribute const &)const )
                  ?getRealAttrArr@Object@Udm_VS10@@QBE?AV?$vector@NV?$allocator@N@std@@@std@@ABVAttribute@Uml@@@Z (public: class std::vector<double,class std::allocator<double> > __thiscall Udm_VS10::Object::getRealAttrArr(class Uml::Attribute const &)const )
                  ?getRealAttrArr@ObjectImpl@Udm_VS10@@UBE?AV?$vector@NV?$allocator@N@std@@@std@@ABVAttribute@Uml@@@Z (public: virtual class std::vector<double,class std::allocator<double> > __thiscall Udm_VS10::ObjectImpl::getRealAttrArr(class Uml::Attribute const &)const )
                  ?getReferencedObject@Object@Udm_VS10@@QBE?AV12@V?$basic_string@DU?$char_traits@D@std@@V?$allocator@D@2@@std@@@Z (public: class Udm_VS10::Object __thiscall Udm_VS10::Object::getReferencedObject(class std::basic_string<char,struct std::char_traits<char>,class std::allocator<char> >)const )
                  ?getSimpleAssociation@UdmProject@Udm_VS10@@QAE?AV?$set@VObject@Udm_VS10@@U?$less@VObject@Udm_VS10@@@std@@V?$allocator@VObject@Udm_VS10@@@4@@std@@AAVObject@2@ABVAssociationRole@Uml@@@Z (public: class std::set<class Udm_VS10::Object,struct std::less<class Udm_VS10::Object>,class std::allocator<class Udm_VS10::Object> > __thiscall Udm_VS10::UdmProject::getSimpleAssociation(class Udm_VS10::Object &,class Uml::AssociationRole const &))
                  ?getSrcObject@Object@Udm_VS10@@QAE?AV12@XZ (public: class Udm_VS10::Object __thiscall Udm_VS10::Object::getSrcObject(void))
                  ?getStringAttr@Object@Udm_VS10@@QBE?AV?$basic_string@DU?$char_traits@D@std@@V?$allocator@D@2@@std@@ABVAttribute@Uml@@@Z (public: class std::basic_string<char,struct std::char_traits<char>,class std::allocator<char> > __thiscall Udm_VS10::Object::getStringAttr(class Uml::Attribute const &)const )
                  ?getStringAttrArr@Object@Udm_VS10@@QBE?AV?$vector@V?$basic_string@DU?$char_traits@D@std@@V?$allocator@D@2@@std@@V?$allocator@V?$basic_string@DU?$char_traits@D@std@@V?$allocator@D@2@@std@@@2@@std@@ABVAttribute@Uml@@@Z (public: class std::vector<class std::basic_string<char,struct std::char_traits<char>,class std::allocator<char> >,class std::allocator<class std::basic_string<char,struct std::char_traits<char>,class std::allocator<char> > > > __thiscall Udm_VS10::Object::getStringAttrArr(class Uml::Attribute const &)const )
                  ?getStringAttrArr@ObjectImpl@Udm_VS10@@UBE?AV?$vector@V?$basic_string@DU?$char_traits@D@std@@V?$allocator@D@2@@std@@V?$allocator@V?$basic_string@DU?$char_traits@D@std@@V?$allocator@D@2@@std@@@2@@std@@ABVAttribute@Uml@@@Z (public: virtual class std::vector<class std::basic_string<char,struct std::char_traits<char>,class std::allocator<char> >,class std::allocator<class std::basic_string<char,struct std::char_traits<char>,class std::allocator<char> > > > __thiscall Udm_VS10::ObjectImpl::getStringAttrArr(class Uml::Attribute const &)const )
                  ?getTempAttrStatus@ObjectImpl@Udm_VS10@@QBEJABVAttribute@Uml@@@Z (public: long __thiscall Udm_VS10::ObjectImpl::getTempAttrStatus(class Uml::Attribute const &)const )
                  ?getTempBooleanAttr@ObjectImpl@Udm_VS10@@QBE_NABVAttribute@Uml@@@Z (public: bool __thiscall Udm_VS10::ObjectImpl::getTempBooleanAttr(class Uml::Attribute const &)const )
                  ?getTempBooleanAttrArr@ObjectImpl@Udm_VS10@@QBE?AV?$vector@_NV?$allocator@_N@std@@@std@@ABVAttribute@Uml@@@Z (public: class std::vector<bool,class std::allocator<bool> > __thiscall Udm_VS10::ObjectImpl::getTempBooleanAttrArr(class Uml::Attribute const &)const )
                  ?getTempIntegerAttr@ObjectImpl@Udm_VS10@@QBE_JABVAttribute@Uml@@@Z (public: __int64 __thiscall Udm_VS10::ObjectImpl::getTempIntegerAttr(class Uml::Attribute const &)const )
                  ?getTempIntegerAttrArr@ObjectImpl@Udm_VS10@@QBE?AV?$vector@_JV?$allocator@_J@std@@@std@@ABVAttribute@Uml@@@Z (public: class std::vector<__int64,class std::allocator<__int64> > __thiscall Udm_VS10::ObjectImpl::getTempIntegerAttrArr(class Uml::Attribute const &)const )
                  ?getTempRealAttr@ObjectImpl@Udm_VS10@@QBENABVAttribute@Uml@@@Z (public: double __thiscall Udm_VS10::ObjectImpl::getTempRealAttr(class Uml::Attribute const &)const )
                  ?getTempRealAttrArr@ObjectImpl@Udm_VS10@@QBE?AV?$vector@NV?$allocator@N@std@@@std@@ABVAttribute@Uml@@@Z (public: class std::vector<double,class std::allocator<double> > __thiscall Udm_VS10::ObjectImpl::getTempRealAttrArr(class Uml::Attribute const &)const )
                  ?getTempStringAttr@ObjectImpl@Udm_VS10@@QBE?AV?$basic_string@DU?$char_traits@D@std@@V?$allocator@D@2@@std@@ABVAttribute@Uml@@@Z (public: class std::basic_string<char,struct std::char_traits<char>,class std::allocator<char> > __thiscall Udm_VS10::ObjectImpl::getTempStringAttr(class Uml::Attribute const &)const )
                  ?getTempStringAttrArr@ObjectImpl@Udm_VS10@@QBE?AV?$vector@V?$basic_string@DU?$char_traits@D@std@@V?$allocator@D@2@@std@@V?$allocator@V?$basic_string@DU?$char_traits@D@std@@V?$allocator@D@2@@std@@@2@@std@@ABVAttribute@Uml@@@Z (public: class std::vector<class std::basic_string<char,struct std::char_traits<char>,class std::allocator<char> >,class std::allocator<class std::basic_string<char,struct std::char_traits<char>,class std::allocator<char> > > > __thiscall Udm_VS10::ObjectImpl::getTempStringAttrArr(class Uml::Attribute const &)const )
                  ?hasRealArchetype@Object@Udm_VS10@@QBE_NXZ (public: bool __thiscall Udm_VS10::Object::hasRealArchetype(void)const )
                  ?instances@Object@Udm_VS10@@QBE?AV?$set@VObject@Udm_VS10@@U?$less@VObject@Udm_VS10@@@std@@V?$allocator@VObject@Udm_VS10@@@4@@std@@XZ (public: class std::set<class Udm_VS10::Object,struct std::less<class Udm_VS10::Object>,class std::allocator<class Udm_VS10::Object> > __thiscall Udm_VS10::Object::instances(void)const )
                  ?isAbstract@Class@Uml@@QBE?AVBooleanAttr@Udm_VS10@@XZ (public: class Udm_VS10::BooleanAttr __thiscall Uml::Class::isAbstract(void)const )
                  ?isInstance@Object@Udm_VS10@@QBE_NXZ (public: bool __thiscall Udm_VS10::Object::isInstance(void)const )
                  ?isLibObject@Object@Udm_VS10@@UBE_NXZ (public: virtual bool __thiscall Udm_VS10::Object::isLibObject(void)const )
                  ?isLibRoot@Object@Udm_VS10@@UBE_NXZ (public: virtual bool __thiscall Udm_VS10::Object::isLibRoot(void)const )
                  ?isNavigable@GenericRole@Uml@@QBE?AVBooleanAttr@Udm_VS10@@XZ (public: class Udm_VS10::BooleanAttr __thiscall Uml::GenericRole::isNavigable(void)const )
                  ?isPrimary@AssociationRole@Uml@@QBE?AVBooleanAttr@Udm_VS10@@XZ (public: class Udm_VS10::BooleanAttr __thiscall Uml::AssociationRole::isPrimary(void)const )
                  ?isSubtype@Object@Udm_VS10@@QBE_NXZ (public: bool __thiscall Udm_VS10::Object::isSubtype(void)const )
                  ?len@cint_string@@QBEHXZ (public: int __thiscall cint_string::len(void)const )
                  ?locatemap@ObjectImpl@Udm_VS10@@QBEAAV?$map@V?$basic_string@DU?$char_traits@D@std@@V?$allocator@D@2@@std@@Vudmvariant@Udm_VS10@@U?$less@V?$basic_string@DU?$char_traits@D@std@@V?$allocator@D@2@@std@@@2@V?$allocator@U?$pair@$$CBV?$basic_string@DU?$char_traits@D@std@@V?$allocator@D@2@@std@@Vudmvariant@Udm_VS10@@@std@@@2@@std@@_N@Z (public: class std::map<class std::basic_string<char,struct std::char_traits<char>,class std::allocator<char> >,class Udm_VS10::udmvariant,struct std::less<class std::basic_string<char,struct std::char_traits<char>,class std::allocator<char> > >,class std::allocator<struct std::pair<class std::basic_string<char,struct std::char_traits<char>,class std::allocator<char> > const ,class Udm_VS10::udmvariant> > > & __thiscall Udm_VS10::ObjectImpl::locatemap(bool)const )
                  ?matchChildToParent@Uml@@YA?AVComposition@1@VClass@1@0@Z (class Uml::Composition __cdecl Uml::matchChildToParent(class Uml::Class,class Uml::Class))
                  ?max@AssociationRole@Uml@@QBE?AVIntegerAttr@Udm_VS10@@XZ (public: class Udm_VS10::IntegerAttr __thiscall Uml::AssociationRole::max(void)const )
                  ?max@Attribute@Uml@@QBE?AVIntegerAttr@Udm_VS10@@XZ (public: class Udm_VS10::IntegerAttr __thiscall Uml::Attribute::max(void)const )
                  ?max@CompositionChildRole@Uml@@QBE?AVIntegerAttr@Udm_VS10@@XZ (public: class Udm_VS10::IntegerAttr __thiscall Uml::CompositionChildRole::max(void)const )
                  ?meta@Association@Uml@@2VClass@2@A (public: static class Uml::Class Uml::Association::meta)
                  ?meta@AssociationRole@Uml@@2VClass@2@A (public: static class Uml::Class Uml::AssociationRole::meta)
                  ?meta@Attribute@Uml@@2VClass@2@A (public: static class Uml::Class Uml::Attribute::meta)
                  ?meta@Class@Uml@@2V12@A (public: static class Uml::Class Uml::Class::meta)
                  ?meta@Composition@Uml@@2VClass@2@A (public: static class Uml::Class Uml::Composition::meta)
                  ?meta@CompositionChildRole@Uml@@2VClass@2@A (public: static class Uml::Class Uml::CompositionChildRole::meta)
                  ?meta@CompositionParentRole@Uml@@2VClass@2@A (public: static class Uml::Class Uml::CompositionParentRole::meta)
                  ?meta@Constraint@Uml@@2VClass@2@A (public: static class Uml::Class Uml::Constraint::meta)
                  ?meta@ConstraintDefinition@Uml@@2VClass@2@A (public: static class Uml::Class Uml::ConstraintDefinition::meta)
                  ?meta@Diagram@Uml@@2VClass@2@A (public: static class Uml::Class Uml::Diagram::meta)
                  ?meta@GenericRole@Uml@@2VClass@2@A (public: static class Uml::Class Uml::GenericRole::meta)
                  ?meta@Namespace@Uml@@2VClass@2@A (public: static class Uml::Class Uml::Namespace::meta)
                  ?meta@TaggedValue@Uml@@2VClass@2@A (public: static class Uml::Class Uml::TaggedValue::meta)
                  ?meta_assocClass@Association@Uml@@2VAssociationRole@2@A (public: static class Uml::AssociationRole Uml::Association::meta_assocClass)
                  ?meta_assocParent@TaggedValue@Uml@@2VCompositionParentRole@2@A (public: static class Uml::CompositionParentRole Uml::TaggedValue::meta_assocParent)
                  ?meta_association@Class@Uml@@2VAssociationRole@2@A (public: static class Uml::AssociationRole Uml::Class::meta_association)
                  ?meta_associationRoles@Class@Uml@@2VAssociationRole@2@A (public: static class Uml::AssociationRole Uml::Class::meta_associationRoles)
                  ?meta_associations@Diagram@Uml@@2VCompositionChildRole@2@A (public: static class Uml::CompositionChildRole Uml::Diagram::meta_associations)
                  ?meta_associations@Namespace@Uml@@2VCompositionChildRole@2@A (public: static class Uml::CompositionChildRole Uml::Namespace::meta_associations)
                  ?meta_attributes@Class@Uml@@2VCompositionChildRole@2@A (public: static class Uml::CompositionChildRole Uml::Class::meta_attributes)
                  ?meta_baseTypes@Class@Uml@@2VAssociationRole@2@A (public: static class Uml::AssociationRole Uml::Class::meta_baseTypes)
                  ?meta_childRole@Composition@Uml@@2VCompositionChildRole@2@A (public: static class Uml::CompositionChildRole Uml::Composition::meta_childRole)
                  ?meta_childRoles@Class@Uml@@2VAssociationRole@2@A (public: static class Uml::AssociationRole Uml::Class::meta_childRoles)
                  ?meta_classParent@TaggedValue@Uml@@2VCompositionParentRole@2@A (public: static class Uml::CompositionParentRole Uml::TaggedValue::meta_classParent)
                  ?meta_classes@Diagram@Uml@@2VCompositionChildRole@2@A (public: static class Uml::CompositionChildRole Uml::Diagram::meta_classes)
                  ?meta_classes@Namespace@Uml@@2VCompositionChildRole@2@A (public: static class Uml::CompositionChildRole Uml::Namespace::meta_classes)
                  ?meta_compositions@Diagram@Uml@@2VCompositionChildRole@2@A (public: static class Uml::CompositionChildRole Uml::Diagram::meta_compositions)
                  ?meta_compositions@Namespace@Uml@@2VCompositionChildRole@2@A (public: static class Uml::CompositionChildRole Uml::Namespace::meta_compositions)
                  ?meta_constraints@Class@Uml@@2VCompositionChildRole@2@A (public: static class Uml::CompositionChildRole Uml::Class::meta_constraints)
                  ?meta_definitions@Class@Uml@@2VCompositionChildRole@2@A (public: static class Uml::CompositionChildRole Uml::Class::meta_definitions)
                  ?meta_defvalue@Attribute@Uml@@2V12@A (public: static class Uml::Attribute Uml::Attribute::meta_defvalue)
                  ?meta_dep@MetaDepository@Udm_VS10@@0PAV?$map@V?$basic_string@DU?$char_traits@D@std@@V?$allocator@D@2@@std@@PBUUdmDiagram@Udm_VS10@@U?$less@V?$basic_string@DU?$char_traits@D@std@@V?$allocator@D@2@@std@@@2@V?$allocator@U?$pair@$$CBV?$basic_string@DU?$char_traits@D@std@@V?$allocator@D@2@@std@@PBUUdmDiagram@Udm_VS10@@@std@@@2@@std@@A (private: static class std::map<class std::basic_string<char,struct std::char_traits<char>,class std::allocator<char> >,struct Udm_VS10::UdmDiagram const *,struct std::less<class std::basic_string<char,struct std::char_traits<char>,class std::allocator<char> > >,class std::allocator<struct std::pair<class std::basic_string<char,struct std::char_traits<char>,class std::allocator<char> > const ,struct Udm_VS10::UdmDiagram const *> > > * Udm_VS10::MetaDepository::meta_dep)
                  ?meta_description@Constraint@Uml@@2VAttribute@2@A (public: static class Uml::Attribute Uml::Constraint::meta_description)
                  ?meta_expression@Constraint@Uml@@2VAttribute@2@A (public: static class Uml::Attribute Uml::Constraint::meta_expression)
                  ?meta_expression@ConstraintDefinition@Uml@@2VAttribute@2@A (public: static class Uml::Attribute Uml::ConstraintDefinition::meta_expression)
                  ?meta_from@Class@Uml@@2VAttribute@2@A (public: static class Uml::Attribute Uml::Class::meta_from)
                  ?meta_isAbstract@Class@Uml@@2VAttribute@2@A (public: static class Uml::Attribute Uml::Class::meta_isAbstract)
                  ?meta_isNavigable@GenericRole@Uml@@2VAttribute@2@A (public: static class Uml::Attribute Uml::GenericRole::meta_isNavigable)
                  ?meta_isPrimary@AssociationRole@Uml@@2VAttribute@2@A (public: static class Uml::Attribute Uml::AssociationRole::meta_isPrimary)
                  ?meta_max@AssociationRole@Uml@@2VAttribute@2@A (public: static class Uml::Attribute Uml::AssociationRole::meta_max)
                  ?meta_max@Attribute@Uml@@2V12@A (public: static class Uml::Attribute Uml::Attribute::meta_max)
                  ?meta_max@CompositionChildRole@Uml@@2VAttribute@2@A (public: static class Uml::Attribute Uml::CompositionChildRole::meta_max)
                  ?meta_min@AssociationRole@Uml@@2VAttribute@2@A (public: static class Uml::Attribute Uml::AssociationRole::meta_min)
                  ?meta_min@Attribute@Uml@@2V12@A (public: static class Uml::Attribute Uml::Attribute::meta_min)
                  ?meta_min@CompositionChildRole@Uml@@2VAttribute@2@A (public: static class Uml::Attribute Uml::CompositionChildRole::meta_min)
                  ?meta_name@Association@Uml@@2VAttribute@2@A (public: static class Uml::Attribute Uml::Association::meta_name)
                  ?meta_name@Attribute@Uml@@2V12@A (public: static class Uml::Attribute Uml::Attribute::meta_name)
                  ?meta_name@Class@Uml@@2VAttribute@2@A (public: static class Uml::Attribute Uml::Class::meta_name)
                  ?meta_name@Composition@Uml@@2VAttribute@2@A (public: static class Uml::Attribute Uml::Composition::meta_name)
                  ?meta_name@Constraint@Uml@@2VAttribute@2@A (public: static class Uml::Attribute Uml::Constraint::meta_name)
                  ?meta_name@ConstraintDefinition@Uml@@2VAttribute@2@A (public: static class Uml::Attribute Uml::ConstraintDefinition::meta_name)
                  ?meta_name@Diagram@Uml@@2VAttribute@2@A (public: static class Uml::Attribute Uml::Diagram::meta_name)
                  ?meta_name@GenericRole@Uml@@2VAttribute@2@A (public: static class Uml::Attribute Uml::GenericRole::meta_name)
                  ?meta_name@Namespace@Uml@@2VAttribute@2@A (public: static class Uml::Attribute Uml::Namespace::meta_name)
                  ?meta_name@TaggedValue@Uml@@2VAttribute@2@A (public: static class Uml::Attribute Uml::TaggedValue::meta_name)
                  ?meta_namespaces@Diagram@Uml@@2VCompositionChildRole@2@A (public: static class Uml::CompositionChildRole Uml::Diagram::meta_namespaces)
                  ?meta_namespaces@Namespace@Uml@@2VCompositionChildRole@2@A (public: static class Uml::CompositionChildRole Uml::Namespace::meta_namespaces)
                  ?meta_nonpersistent@Association@Uml@@2VAttribute@2@A (public: static class Uml::Attribute Uml::Association::meta_nonpersistent)
                  ?meta_nonpersistent@Attribute@Uml@@2V12@A (public: static class Uml::Attribute Uml::Attribute::meta_nonpersistent)
                  ?meta_nonpersistent@Composition@Uml@@2VAttribute@2@A (public: static class Uml::Attribute Uml::Composition::meta_nonpersistent)
                  ?meta_ordered@Attribute@Uml@@2V12@A (public: static class Uml::Attribute Uml::Attribute::meta_ordered)
                  ?meta_parameterList@ConstraintDefinition@Uml@@2VAttribute@2@A (public: static class Uml::Attribute Uml::ConstraintDefinition::meta_parameterList)
                  ?meta_parent@Association@Uml@@2VCompositionParentRole@2@A (public: static class Uml::CompositionParentRole Uml::Association::meta_parent)
                  ?meta_parent@AssociationRole@Uml@@2VCompositionParentRole@2@A (public: static class Uml::CompositionParentRole Uml::AssociationRole::meta_parent)
                  ?meta_parent@Attribute@Uml@@2VCompositionParentRole@2@A (public: static class Uml::CompositionParentRole Uml::Attribute::meta_parent)
                  ?meta_parent@Class@Uml@@2VCompositionParentRole@2@A (public: static class Uml::CompositionParentRole Uml::Class::meta_parent)
                  ?meta_parent@Composition@Uml@@2VCompositionParentRole@2@A (public: static class Uml::CompositionParentRole Uml::Composition::meta_parent)
                  ?meta_parent@CompositionChildRole@Uml@@2VCompositionParentRole@2@A (public: static class Uml::CompositionParentRole Uml::CompositionChildRole::meta_parent)
                  ?meta_parent@CompositionParentRole@Uml@@2V12@A (public: static class Uml::CompositionParentRole Uml::CompositionParentRole::meta_parent)
                  ?meta_parent@Constraint@Uml@@2VCompositionParentRole@2@A (public: static class Uml::CompositionParentRole Uml::Constraint::meta_parent)
                  ?meta_parent@ConstraintDefinition@Uml@@2VCompositionParentRole@2@A (public: static class Uml::CompositionParentRole Uml::ConstraintDefinition::meta_parent)
                  ?meta_parent@Namespace@Uml@@2VCompositionParentRole@2@A (public: static class Uml::CompositionParentRole Uml::Namespace::meta_parent)
                  ?meta_parentRole@Composition@Uml@@2VCompositionChildRole@2@A (public: static class Uml::CompositionChildRole Uml::Composition::meta_parentRole)
                  ?meta_parentRoles@Class@Uml@@2VAssociationRole@2@A (public: static class Uml::AssociationRole Uml::Class::meta_parentRoles)
                  ?meta_parent_ns@Association@Uml@@2VCompositionParentRole@2@A (public: static class Uml::CompositionParentRole Uml::Association::meta_parent_ns)
                  ?meta_parent_ns@Class@Uml@@2VCompositionParentRole@2@A (public: static class Uml::CompositionParentRole Uml::Class::meta_parent_ns)
                  ?meta_parent_ns@Composition@Uml@@2VCompositionParentRole@2@A (public: static class Uml::CompositionParentRole Uml::Composition::meta_parent_ns)
                  ?meta_parent_ns@Namespace@Uml@@2VCompositionParentRole@2@A (public: static class Uml::CompositionParentRole Uml::Namespace::meta_parent_ns)
                  ?meta_registry@Attribute@Uml@@2V12@A (public: static class Uml::Attribute Uml::Attribute::meta_registry)
                  ?meta_returnType@ConstraintDefinition@Uml@@2VAttribute@2@A (public: static class Uml::Attribute Uml::ConstraintDefinition::meta_returnType)
                  ?meta_roles@Association@Uml@@2VCompositionChildRole@2@A (public: static class Uml::CompositionChildRole Uml::Association::meta_roles)
                  ?meta_rp_helper@AssociationRole@Uml@@2V12@A (public: static class Uml::AssociationRole Uml::AssociationRole::meta_rp_helper)
                  ?meta_rp_helper_user@AssociationRole@Uml@@2V12@A (public: static class Uml::AssociationRole Uml::AssociationRole::meta_rp_helper_user)
                  ?meta_stereotype@Class@Uml@@2VAttribute@2@A (public: static class Uml::Attribute Uml::Class::meta_stereotype)
                  ?meta_stereotype@ConstraintDefinition@Uml@@2VAttribute@2@A (public: static class Uml::Attribute Uml::ConstraintDefinition::meta_stereotype)
                  ?meta_subTypes@Class@Uml@@2VAssociationRole@2@A (public: static class Uml::AssociationRole Uml::Class::meta_subTypes)
                  ?meta_tagValues@Association@Uml@@2VCompositionChildRole@2@A (public: static class Uml::CompositionChildRole Uml::Association::meta_tagValues)
                  ?meta_tagValues@Class@Uml@@2VCompositionChildRole@2@A (public: static class Uml::CompositionChildRole Uml::Class::meta_tagValues)
                  ?meta_target@AssociationRole@Uml@@2V12@A (public: static class Uml::AssociationRole Uml::AssociationRole::meta_target)
                  ?meta_target@CompositionChildRole@Uml@@2VAssociationRole@2@A (public: static class Uml::AssociationRole Uml::CompositionChildRole::meta_target)
                  ?meta_target@CompositionParentRole@Uml@@2VAssociationRole@2@A (public: static class Uml::AssociationRole Uml::CompositionParentRole::meta_target)
                  ?meta_type@Attribute@Uml@@2V12@A (public: static class Uml::Attribute Uml::Attribute::meta_type)
                  ?meta_value@TaggedValue@Uml@@2VAttribute@2@A (public: static class Uml::Attribute Uml::TaggedValue::meta_value)
                  ?meta_version@Diagram@Uml@@2VAttribute@2@A (public: static class Uml::Attribute Uml::Diagram::meta_version)
                  ?meta_visibility@Attribute@Uml@@2V12@A (public: static class Uml::Attribute Uml::Attribute::meta_visibility)
                  ?metalocator@DataNetworkSpecifier@Udm_VS10@@QAE?BV?$basic_string@DU?$char_traits@D@std@@V?$allocator@D@2@@std@@XZ (public: class std::basic_string<char,struct std::char_traits<char>,class std::allocator<char> > const __thiscall Udm_VS10::DataNetworkSpecifier::metalocator(void))
                  ?min@AssociationRole@Uml@@QBE?AVIntegerAttr@Udm_VS10@@XZ (public: class Udm_VS10::IntegerAttr __thiscall Uml::AssociationRole::min(void)const )
                  ?min@Attribute@Uml@@QBE?AVIntegerAttr@Udm_VS10@@XZ (public: class Udm_VS10::IntegerAttr __thiscall Uml::Attribute::min(void)const )
                  ?min@CompositionChildRole@Uml@@QBE?AVIntegerAttr@Udm_VS10@@XZ (public: class Udm_VS10::IntegerAttr __thiscall Uml::CompositionChildRole::min(void)const )
                  ?name@Association@Uml@@QBE?AVStringAttr@Udm_VS10@@XZ (public: class Udm_VS10::StringAttr __thiscall Uml::Association::name(void)const )
                  ?name@Attribute@Uml@@QBE?AVStringAttr@Udm_VS10@@XZ (public: class Udm_VS10::StringAttr __thiscall Uml::Attribute::name(void)const )
                  ?name@Class@Uml@@QBE?AVStringAttr@Udm_VS10@@XZ (public: class Udm_VS10::StringAttr __thiscall Uml::Class::name(void)const )
                  ?name@Composition@Uml@@QBE?AVStringAttr@Udm_VS10@@XZ (public: class Udm_VS10::StringAttr __thiscall Uml::Composition::name(void)const )
                  ?name@Constraint@Uml@@QBE?AVStringAttr@Udm_VS10@@XZ (public: class Udm_VS10::StringAttr __thiscall Uml::Constraint::name(void)const )
                  ?name@ConstraintDefinition@Uml@@QBE?AVStringAttr@Udm_VS10@@XZ (public: class Udm_VS10::StringAttr __thiscall Uml::ConstraintDefinition::name(void)const )
                  ?name@Diagram@Uml@@QBE?AVStringAttr@Udm_VS10@@XZ (public: class Udm_VS10::StringAttr __thiscall Uml::Diagram::name(void)const )
                  ?name@GenericRole@Uml@@QBE?AVStringAttr@Udm_VS10@@XZ (public: class Udm_VS10::StringAttr __thiscall Uml::GenericRole::name(void)const )
                  ?name@Namespace@Uml@@QBE?AVStringAttr@Udm_VS10@@XZ (public: class Udm_VS10::StringAttr __thiscall Uml::Namespace::name(void)const )
                  ?name@TaggedValue@Uml@@QBE?AVStringAttr@Udm_VS10@@XZ (public: class Udm_VS10::StringAttr __thiscall Uml::TaggedValue::name(void)const )
                  ?namespaceByName@Uml@@YA?AVNamespace@1@ABV21@ABV?$basic_string@DU?$char_traits@D@std@@V?$allocator@D@2@@std@@@Z (class Uml::Namespace __cdecl Uml::namespaceByName(class Uml::Namespace const &,class std::basic_string<char,struct std::char_traits<char>,class std::allocator<char> > const &))
                  ?namespaceByName@Uml@@YA?AVNamespace@1@ABVDiagram@1@ABV?$basic_string@DU?$char_traits@D@std@@V?$allocator@D@2@@std@@@Z (class Uml::Namespace __cdecl Uml::namespaceByName(class Uml::Diagram const &,class std::basic_string<char,struct std::char_traits<char>,class std::allocator<char> > const &))
                  ?namespaceByPath@Uml@@YA?AVNamespace@1@ABVDiagram@1@ABV?$basic_string@DU?$char_traits@D@std@@V?$allocator@D@2@@std@@1@Z (class Uml::Namespace __cdecl Uml::namespaceByPath(class Uml::Diagram const &,class std::basic_string<char,struct std::char_traits<char>,class std::allocator<char> > const &,class std::basic_string<char,struct std::char_traits<char>,class std::allocator<char> > const &))
                  ?namespaces@Diagram@Uml@@QBE?AV?$ChildrenAttr@VNamespace@Uml@@U?$less@VNamespace@Uml@@@std@@@Udm_VS10@@XZ (public: class Udm_VS10::ChildrenAttr<class Uml::Namespace,struct std::less<class Uml::Namespace> > __thiscall Uml::Diagram::namespaces(void)const )
                  ?namespaces@Namespace@Uml@@QBE?AV?$ChildrenAttr@VNamespace@Uml@@U?$less@VNamespace@Uml@@@std@@@Udm_VS10@@XZ (public: class Udm_VS10::ChildrenAttr<class Uml::Namespace,struct std::less<class Uml::Namespace> > __thiscall Uml::Namespace::namespaces(void)const )
                  ?nonpersistent@Association@Uml@@QBE?AVBooleanAttr@Udm_VS10@@XZ (public: class Udm_VS10::BooleanAttr __thiscall Uml::Association::nonpersistent(void)const )
                  ?nonpersistent@Attribute@Uml@@QBE?AVBooleanAttr@Udm_VS10@@XZ (public: class Udm_VS10::BooleanAttr __thiscall Uml::Attribute::nonpersistent(void)const )
                  ?nonpersistent@Composition@Uml@@QBE?AVBooleanAttr@Udm_VS10@@XZ (public: class Udm_VS10::BooleanAttr __thiscall Uml::Composition::nonpersistent(void)const )
                  ?null@Udm_VS10@@3VObject@1@A (class Udm_VS10::Object Udm_VS10::null)
                  ?object@Evaluator@Ocl@@QBEAAVObject@Udm_VS10@@XZ (public: class Udm_VS10::Object & __thiscall Ocl::Evaluator::object(void)const )
                  ?ordered@Attribute@Uml@@QBE?AVBooleanAttr@Udm_VS10@@XZ (public: class Udm_VS10::BooleanAttr __thiscall Uml::Attribute::ordered(void)const )
                  ?parameterList@ConstraintDefinition@Uml@@QBE?AVStringAttr@Udm_VS10@@XZ (public: class Udm_VS10::StringAttr __thiscall Uml::ConstraintDefinition::parameterList(void)const )
                  ?parent@Association@Uml@@QBE?AV?$ParentAttr@VDiagram@Uml@@@Udm_VS10@@XZ (public: class Udm_VS10::ParentAttr<class Uml::Diagram> __thiscall Uml::Association::parent(void)const )
                  ?parent@AssociationRole@Uml@@QBE?AV?$ParentAttr@VAssociation@Uml@@@Udm_VS10@@XZ (public: class Udm_VS10::ParentAttr<class Uml::Association> __thiscall Uml::AssociationRole::parent(void)const )
                  ?parent@Attribute@Uml@@QBE?AV?$ParentAttr@VClass@Uml@@@Udm_VS10@@XZ (public: class Udm_VS10::ParentAttr<class Uml::Class> __thiscall Uml::Attribute::parent(void)const )
                  ?parent@Class@Uml@@QBE?AV?$ParentAttr@VDiagram@Uml@@@Udm_VS10@@XZ (public: class Udm_VS10::ParentAttr<class Uml::Diagram> __thiscall Uml::Class::parent(void)const )
                  ?parent@Composition@Uml@@QBE?AV?$ParentAttr@VDiagram@Uml@@@Udm_VS10@@XZ (public: class Udm_VS10::ParentAttr<class Uml::Diagram> __thiscall Uml::Composition::parent(void)const )
                  ?parent@CompositionChildRole@Uml@@QBE?AV?$ParentAttr@VComposition@Uml@@@Udm_VS10@@XZ (public: class Udm_VS10::ParentAttr<class Uml::Composition> __thiscall Uml::CompositionChildRole::parent(void)const )
                  ?parent@CompositionParentRole@Uml@@QBE?AV?$ParentAttr@VComposition@Uml@@@Udm_VS10@@XZ (public: class Udm_VS10::ParentAttr<class Uml::Composition> __thiscall Uml::CompositionParentRole::parent(void)const )
                  ?parent@Constraint@Uml@@QBE?AV?$ParentAttr@VClass@Uml@@@Udm_VS10@@XZ (public: class Udm_VS10::ParentAttr<class Uml::Class> __thiscall Uml::Constraint::parent(void)const )
                  ?parent@ConstraintDefinition@Uml@@QBE?AV?$ParentAttr@VClass@Uml@@@Udm_VS10@@XZ (public: class Udm_VS10::ParentAttr<class Uml::Class> __thiscall Uml::ConstraintDefinition::parent(void)const )
                  ?parent@Diagram@Uml@@QBE?AV?$ParentAttr@VObject@Udm_VS10@@@Udm_VS10@@XZ (public: class Udm_VS10::ParentAttr<class Udm_VS10::Object> __thiscall Uml::Diagram::parent(void)const )
                  ?parent@GenericRole@Uml@@QBE?AV?$ParentAttr@VObject@Udm_VS10@@@Udm_VS10@@XZ (public: class Udm_VS10::ParentAttr<class Udm_VS10::Object> __thiscall Uml::GenericRole::parent(void)const )
                  ?parent@Namespace@Uml@@QBE?AV?$ParentAttr@VDiagram@Uml@@@Udm_VS10@@XZ (public: class Udm_VS10::ParentAttr<class Uml::Diagram> __thiscall Uml::Namespace::parent(void)const )
                  ?parent@TaggedValue@Uml@@QBE?AV?$ParentAttr@VObject@Udm_VS10@@@Udm_VS10@@XZ (public: class Udm_VS10::ParentAttr<class Udm_VS10::Object> __thiscall Uml::TaggedValue::parent(void)const )
                  ?parentRole@Composition@Uml@@QBE?AV?$ChildAttr@VCompositionParentRole@Uml@@@Udm_VS10@@XZ (public: class Udm_VS10::ChildAttr<class Uml::CompositionParentRole> __thiscall Uml::Composition::parentRole(void)const )
                  ?parentRoles@Class@Uml@@QBE?AV?$AssocAttr@VCompositionParentRole@Uml@@U?$less@VCompositionParentRole@Uml@@@std@@@Udm_VS10@@XZ (public: class Udm_VS10::AssocAttr<class Uml::CompositionParentRole,struct std::less<class Uml::CompositionParentRole> > __thiscall Uml::Class::parentRoles(void)const )
                  ?parent_ns@Association@Uml@@QBE?AV?$ParentAttr@VNamespace@Uml@@@Udm_VS10@@XZ (public: class Udm_VS10::ParentAttr<class Uml::Namespace> __thiscall Uml::Association::parent_ns(void)const )
                  ?parent_ns@Class@Uml@@QBE?AV?$ParentAttr@VNamespace@Uml@@@Udm_VS10@@XZ (public: class Udm_VS10::ParentAttr<class Uml::Namespace> __thiscall Uml::Class::parent_ns(void)const )
                  ?parent_ns@Composition@Uml@@QBE?AV?$ParentAttr@VNamespace@Uml@@@Udm_VS10@@XZ (public: class Udm_VS10::ParentAttr<class Uml::Namespace> __thiscall Uml::Composition::parent_ns(void)const )
                  ?parent_ns@Namespace@Uml@@QBE?AV?$ParentAttr@VNamespace@Uml@@@Udm_VS10@@XZ (public: class Udm_VS10::ParentAttr<class Uml::Namespace> __thiscall Uml::Namespace::parent_ns(void)const )
                  ?registry@Attribute@Uml@@QBE?AVBooleanAttr@Udm_VS10@@XZ (public: class Udm_VS10::BooleanAttr __thiscall Uml::Attribute::registry(void)const )
                  ?replace_delimiter@UdmUtil@@YA?AV?$basic_string@DU?$char_traits@D@std@@V?$allocator@D@2@@std@@ABV23@00@Z (class std::basic_string<char,struct std::char_traits<char>,class std::allocator<char> > __cdecl UdmUtil::replace_delimiter(class std::basic_string<char,struct std::char_traits<char>,class std::allocator<char> > const &,class std::basic_string<char,struct std::char_traits<char>,class std::allocator<char> > const &,class std::basic_string<char,struct std::char_traits<char>,class std::allocator<char> > const &))
                  ?reqCopyLinks@UdmUtil@@YAHPAVObjectImpl@Udm_VS10@@0AAV?$map@VObject@Udm_VS10@@V12@U?$less@VObject@Udm_VS10@@@std@@V?$allocator@U?$pair@$$CBVObject@Udm_VS10@@V12@@std@@@4@@std@@_N2ABUCopyOpts@1@@Z (int __cdecl UdmUtil::reqCopyLinks(class Udm_VS10::ObjectImpl *,class Udm_VS10::ObjectImpl *,class std::map<class Udm_VS10::Object,class Udm_VS10::Object,struct std::less<class Udm_VS10::Object>,class std::allocator<struct std::pair<class Udm_VS10::Object const ,class Udm_VS10::Object> > > &,bool,bool,struct UdmUtil::CopyOpts const &))
                  ?returnType@ConstraintDefinition@Uml@@QBE?AVStringAttr@Udm_VS10@@XZ (public: class Udm_VS10::StringAttr __thiscall Uml::ConstraintDefinition::returnType(void)const )
                  ?roles@Association@Uml@@QBE?AV?$ChildrenAttr@VAssociationRole@Uml@@U?$less@VAssociationRole@Uml@@@std@@@Udm_VS10@@XZ (public: class Udm_VS10::ChildrenAttr<class Uml::AssociationRole,struct std::less<class Uml::AssociationRole> > __thiscall Uml::Association::roles(void)const )
                  ?rootclass@DataNetworkSpecifier@Udm_VS10@@QAEABVClass@Uml@@XZ (public: class Uml::Class const & __thiscall Udm_VS10::DataNetworkSpecifier::rootclass(void))
                  ?rp_helper@AssociationRole@Uml@@QBE?AV?$PointerAttr@VAssociationRole@Uml@@@Udm_VS10@@XZ (public: class Udm_VS10::PointerAttr<class Uml::AssociationRole> __thiscall Uml::AssociationRole::rp_helper(void)const )
                  ?rp_helper_user@AssociationRole@Uml@@QBE?AV?$PointerAttr@VAssociationRole@Uml@@@Udm_VS10@@XZ (public: class Udm_VS10::PointerAttr<class Uml::AssociationRole> __thiscall Uml::AssociationRole::rp_helper_user(void)const )
                  ?setAssociation@Object@Udm_VS10@@QAEXABVAssociationRole@Uml@@ABV?$set@VObject@Udm_VS10@@U?$less@VObject@Udm_VS10@@@std@@V?$allocator@VObject@Udm_VS10@@@4@@std@@H@Z (public: void __thiscall Udm_VS10::Object::setAssociation(class Uml::AssociationRole const &,class std::set<class Udm_VS10::Object,struct std::less<class Udm_VS10::Object>,class std::allocator<class Udm_VS10::Object> > const &,int))
                  ?setBooleanAttr@Object@Udm_VS10@@QAEXABVAttribute@Uml@@_N@Z (public: void __thiscall Udm_VS10::Object::setBooleanAttr(class Uml::Attribute const &,bool))
                  ?setBooleanAttrArr@Object@Udm_VS10@@QAEXABVAttribute@Uml@@ABV?$vector@_NV?$allocator@_N@std@@@std@@@Z (public: void __thiscall Udm_VS10::Object::setBooleanAttrArr(class Uml::Attribute const &,class std::vector<bool,class std::allocator<bool> > const &))
                  ?setBooleanAttrArr@ObjectImpl@Udm_VS10@@UAEXABVAttribute@Uml@@ABV?$vector@_NV?$allocator@_N@std@@@std@@_N@Z (public: virtual void __thiscall Udm_VS10::ObjectImpl::setBooleanAttrArr(class Uml::Attribute const &,class std::vector<bool,class std::allocator<bool> > const &,bool))
                  ?setDefaultAttributes@ObjectImpl@Udm_VS10@@QAEX_N@Z (public: void __thiscall Udm_VS10::ObjectImpl::setDefaultAttributes(bool))
                  ?setEnd@UdmProject@Udm_VS10@@QAEXAAVObject@2@0ABVAssociationRole@Uml@@@Z (public: void __thiscall Udm_VS10::UdmProject::setEnd(class Udm_VS10::Object &,class Udm_VS10::Object &,class Uml::AssociationRole const &))
                  ?setIntegerAttr@Object@Udm_VS10@@QAEXABVAttribute@Uml@@_J@Z (public: void __thiscall Udm_VS10::Object::setIntegerAttr(class Uml::Attribute const &,__int64))
                  ?setIntegerAttrArr@Object@Udm_VS10@@QAEXABVAttribute@Uml@@ABV?$vector@_JV?$allocator@_J@std@@@std@@@Z (public: void __thiscall Udm_VS10::Object::setIntegerAttrArr(class Uml::Attribute const &,class std::vector<__int64,class std::allocator<__int64> > const &))
                  ?setIntegerAttrArr@ObjectImpl@Udm_VS10@@UAEXABVAttribute@Uml@@ABV?$vector@_JV?$allocator@_J@std@@@std@@_N@Z (public: virtual void __thiscall Udm_VS10::ObjectImpl::setIntegerAttrArr(class Uml::Attribute const &,class std::vector<__int64,class std::allocator<__int64> > const &,bool))
                  ?setLibraryName@Object@Udm_VS10@@UAEXPBD@Z (public: virtual void __thiscall Udm_VS10::Object::setLibraryName(char const *))
                  ?setLinks@UdmProject@Udm_VS10@@QAEXAAVObject@2@AAV?$set@VObject@Udm_VS10@@U?$less@VObject@Udm_VS10@@@std@@V?$allocator@VObject@Udm_VS10@@@4@@std@@ABVAssociationRole@Uml@@@Z (public: void __thiscall Udm_VS10::UdmProject::setLinks(class Udm_VS10::Object &,class std::set<class Udm_VS10::Object,struct std::less<class Udm_VS10::Object>,class std::allocator<class Udm_VS10::Object> > &,class Uml::AssociationRole const &))
                  ?setRealAttr@Object@Udm_VS10@@QAEXABVAttribute@Uml@@N@Z (public: void __thiscall Udm_VS10::Object::setRealAttr(class Uml::Attribute const &,double))
                  ?setRealAttrArr@Object@Udm_VS10@@QAEXABVAttribute@Uml@@ABV?$vector@NV?$allocator@N@std@@@std@@@Z (public: void __thiscall Udm_VS10::Object::setRealAttrArr(class Uml::Attribute const &,class std::vector<double,class std::allocator<double> > const &))
                  ?setRealAttrArr@ObjectImpl@Udm_VS10@@UAEXABVAttribute@Uml@@ABV?$vector@NV?$allocator@N@std@@@std@@_N@Z (public: virtual void __thiscall Udm_VS10::ObjectImpl::setRealAttrArr(class Uml::Attribute const &,class std::vector<double,class std::allocator<double> > const &,bool))
                  ?setSimpleAssociation@UdmProject@Udm_VS10@@QAEXAAVObject@2@AAV?$set@VObject@Udm_VS10@@U?$less@VObject@Udm_VS10@@@std@@V?$allocator@VObject@Udm_VS10@@@4@@std@@ABVAssociationRole@Uml@@@Z (public: void __thiscall Udm_VS10::UdmProject::setSimpleAssociation(class Udm_VS10::Object &,class std::set<class Udm_VS10::Object,struct std::less<class Udm_VS10::Object>,class std::allocator<class Udm_VS10::Object> > &,class Uml::AssociationRole const &))
                  ?setStaticUdmProject@DataNetwork@Udm_VS10@@UAEXPAVStaticUdmProject@2@@Z (public: virtual void __thiscall Udm_VS10::DataNetwork::setStaticUdmProject(class Udm_VS10::StaticUdmProject *))
                  ?setStringAttr@Object@Udm_VS10@@QAEXABVAttribute@Uml@@ABV?$basic_string@DU?$char_traits@D@std@@V?$allocator@D@2@@std@@@Z (public: void __thiscall Udm_VS10::Object::setStringAttr(class Uml::Attribute const &,class std::basic_string<char,struct std::char_traits<char>,class std::allocator<char> > const &))
                  ?setStringAttrArr@Object@Udm_VS10@@QAEXABVAttribute@Uml@@ABV?$vector@V?$basic_string@DU?$char_traits@D@std@@V?$allocator@D@2@@std@@V?$allocator@V?$basic_string@DU?$char_traits@D@std@@V?$allocator@D@2@@std@@@2@@std@@@Z (public: void __thiscall Udm_VS10::Object::setStringAttrArr(class Uml::Attribute const &,class std::vector<class std::basic_string<char,struct std::char_traits<char>,class std::allocator<char> >,class std::allocator<class std::basic_string<char,struct std::char_traits<char>,class std::allocator<char> > > > const &))
                  ?setStringAttrArr@ObjectImpl@Udm_VS10@@UAEXABVAttribute@Uml@@ABV?$vector@V?$basic_string@DU?$char_traits@D@std@@V?$allocator@D@2@@std@@V?$allocator@V?$basic_string@DU?$char_traits@D@std@@V?$allocator@D@2@@std@@@2@@std@@_N@Z (public: virtual void __thiscall Udm_VS10::ObjectImpl::setStringAttrArr(class Uml::Attribute const &,class std::vector<class std::basic_string<char,struct std::char_traits<char>,class std::allocator<char> >,class std::allocator<class std::basic_string<char,struct std::char_traits<char>,class std::allocator<char> > > > const &,bool))
                  ?setTempBooleanAttr@ObjectImpl@Udm_VS10@@QAEXABVAttribute@Uml@@AB_N_N@Z (public: void __thiscall Udm_VS10::ObjectImpl::setTempBooleanAttr(class Uml::Attribute const &,bool const &,bool))
                  ?setTempBooleanAttrArr@ObjectImpl@Udm_VS10@@QAEXABVAttribute@Uml@@ABV?$vector@_NV?$allocator@_N@std@@@std@@_N@Z (public: void __thiscall Udm_VS10::ObjectImpl::setTempBooleanAttrArr(class Uml::Attribute const &,class std::vector<bool,class std::allocator<bool> > const &,bool))
                  ?setTempIntegerAttr@ObjectImpl@Udm_VS10@@QAEXABVAttribute@Uml@@AB_J_N@Z (public: void __thiscall Udm_VS10::ObjectImpl::setTempIntegerAttr(class Uml::Attribute const &,__int64 const &,bool))
                  ?setTempIntegerAttrArr@ObjectImpl@Udm_VS10@@QAEXABVAttribute@Uml@@ABV?$vector@_JV?$allocator@_J@std@@@std@@_N@Z (public: void __thiscall Udm_VS10::ObjectImpl::setTempIntegerAttrArr(class Uml::Attribute const &,class std::vector<__int64,class std::allocator<__int64> > const &,bool))
                  ?setTempRealAttr@ObjectImpl@Udm_VS10@@QAEXABVAttribute@Uml@@ABN_N@Z (public: void __thiscall Udm_VS10::ObjectImpl::setTempRealAttr(class Uml::Attribute const &,double const &,bool))
                  ?setTempRealAttrArr@ObjectImpl@Udm_VS10@@QAEXABVAttribute@Uml@@ABV?$vector@NV?$allocator@N@std@@@std@@_N@Z (public: void __thiscall Udm_VS10::ObjectImpl::setTempRealAttrArr(class Uml::Attribute const &,class std::vector<double,class std::allocator<double> > const &,bool))
                  ?setTempStringAttr@ObjectImpl@Udm_VS10@@QAEXABVAttribute@Uml@@ABV?$basic_string@DU?$char_traits@D@std@@V?$allocator@D@2@@std@@_N@Z (public: void __thiscall Udm_VS10::ObjectImpl::setTempStringAttr(class Uml::Attribute const &,class std::basic_string<char,struct std::char_traits<char>,class std::allocator<char> > const &,bool))
                  ?setTempStringAttrArr@ObjectImpl@Udm_VS10@@QAEXABVAttribute@Uml@@ABV?$vector@V?$basic_string@DU?$char_traits@D@std@@V?$allocator@D@2@@std@@V?$allocator@V?$basic_string@DU?$char_traits@D@std@@V?$allocator@D@2@@std@@@2@@std@@_N@Z (public: void __thiscall Udm_VS10::ObjectImpl::setTempStringAttrArr(class Uml::Attribute const &,class std::vector<class std::basic_string<char,struct std::char_traits<char>,class std::allocator<char> >,class std::allocator<class std::basic_string<char,struct std::char_traits<char>,class std::allocator<char> > > > const &,bool))
                  ?stacktrace@UdmUtil@@YA?AV?$basic_string@DU?$char_traits@D@std@@V?$allocator@D@2@@std@@XZ (class std::basic_string<char,struct std::char_traits<char>,class std::allocator<char> > __cdecl UdmUtil::stacktrace(void))
                  ?static_xsd_container@str_xsd_storage@UdmDom@@2V?$map@$$CBV?$basic_string@DU?$char_traits@D@std@@V?$allocator@D@2@@std@@$$CBV12@U?$less@$$CBV?$basic_string@DU?$char_traits@D@std@@V?$allocator@D@2@@std@@@2@V?$allocator@U?$pair@$$CBV?$basic_string@DU?$char_traits@D@std@@V?$allocator@D@2@@std@@$$CBV12@@std@@@2@@std@@A (public: static class std::map<class std::basic_string<char,struct std::char_traits<char>,class std::allocator<char> > const ,class std::basic_string<char,struct std::char_traits<char>,class std::allocator<char> > const ,struct std::less<class std::basic_string<char,struct std::char_traits<char>,class std::allocator<char> > const >,class std::allocator<struct std::pair<class std::basic_string<char,struct std::char_traits<char>,class std::allocator<char> > const ,class std::basic_string<char,struct std::char_traits<char>,class std::allocator<char> > const > > > UdmDom::str_xsd_storage::static_xsd_container)
                  ?static_xsd_ns_back_mapping_container@xsd_ns_mapping_storage@UdmDom@@2V?$map@$$CBV?$basic_string@DU?$char_traits@D@std@@V?$allocator@D@2@@std@@$$CBV12@U?$less@$$CBV?$basic_string@DU?$char_traits@D@std@@V?$allocator@D@2@@std@@@2@V?$allocator@U?$pair@$$CBV?$basic_string@DU?$char_traits@D@std@@V?$allocator@D@2@@std@@$$CBV12@@std@@@2@@std@@A (public: static class std::map<class std::basic_string<char,struct std::char_traits<char>,class std::allocator<char> > const ,class std::basic_string<char,struct std::char_traits<char>,class std::allocator<char> > const ,struct std::less<class std::basic_string<char,struct std::char_traits<char>,class std::allocator<char> > const >,class std::allocator<struct std::pair<class std::basic_string<char,struct std::char_traits<char>,class std::allocator<char> > const ,class std::basic_string<char,struct std::char_traits<char>,class std::allocator<char> > const > > > UdmDom::xsd_ns_mapping_storage::static_xsd_ns_back_mapping_container)
                  ?static_xsd_ns_mapping_container@xsd_ns_mapping_storage@UdmDom@@2V?$map@$$CBV?$basic_string@DU?$char_traits@D@std@@V?$allocator@D@2@@std@@$$CBV12@U?$less@$$CBV?$basic_string@DU?$char_traits@D@std@@V?$allocator@D@2@@std@@@2@V?$allocator@U?$pair@$$CBV?$basic_string@DU?$char_traits@D@std@@V?$allocator@D@2@@std@@$$CBV12@@std@@@2@@std@@A (public: static class std::map<class std::basic_string<char,struct std::char_traits<char>,class std::allocator<char> > const ,class std::basic_string<char,struct std::char_traits<char>,class std::allocator<char> > const ,struct std::less<class std::basic_string<char,struct std::char_traits<char>,class std::allocator<char> > const >,class std::allocator<struct std::pair<class std::basic_string<char,struct std::char_traits<char>,class std::allocator<char> > const ,class std::basic_string<char,struct std::char_traits<char>,class std::allocator<char> > const > > > UdmDom::xsd_ns_mapping_storage::static_xsd_ns_mapping_container)
                  ?stereotype@Class@Uml@@QBE?AVStringAttr@Udm_VS10@@XZ (public: class Udm_VS10::StringAttr __thiscall Uml::Class::stereotype(void)const )
                  ?stereotype@ConstraintDefinition@Uml@@QBE?AVStringAttr@Udm_VS10@@XZ (public: class Udm_VS10::StringAttr __thiscall Uml::ConstraintDefinition::stereotype(void)const )
                  ?stringToDouble@UdmUtil@@YA_NPBDAAN@Z (bool __cdecl UdmUtil::stringToDouble(char const *,double &))
                  ?string_to_vector@UdmUtil@@YA?AV?$vector@V?$basic_string@DU?$char_traits@D@std@@V?$allocator@D@2@@std@@V?$allocator@V?$basic_string@DU?$char_traits@D@std@@V?$allocator@D@2@@std@@@2@@std@@ABV?$basic_string@DU?$char_traits@D@std@@V?$allocator@D@2@@3@D@Z (class std::vector<class std::basic_string<char,struct std::char_traits<char>,class std::allocator<char> >,class std::allocator<class std::basic_string<char,struct std::char_traits<char>,class std::allocator<char> > > > __cdecl UdmUtil::string_to_vector(class std::basic_string<char,struct std::char_traits<char>,class std::allocator<char> > const &,char))
                  ?subTypes@Class@Uml@@QBE?AV?$AssocAttr@VClass@Uml@@U?$less@VClass@Uml@@@std@@@Udm_VS10@@XZ (public: class Udm_VS10::AssocAttr<class Uml::Class,struct std::less<class Uml::Class> > __thiscall Uml::Class::subTypes(void)const )
                  ?tagValues@Association@Uml@@QBE?AV?$ChildrenAttr@VTaggedValue@Uml@@U?$less@VTaggedValue@Uml@@@std@@@Udm_VS10@@XZ (public: class Udm_VS10::ChildrenAttr<class Uml::TaggedValue,struct std::less<class Uml::TaggedValue> > __thiscall Uml::Association::tagValues(void)const )
                  ?tagValues@Class@Uml@@QBE?AV?$ChildrenAttr@VTaggedValue@Uml@@U?$less@VTaggedValue@Uml@@@std@@@Udm_VS10@@XZ (public: class Udm_VS10::ChildrenAttr<class Uml::TaggedValue,struct std::less<class Uml::TaggedValue> > __thiscall Uml::Class::tagValues(void)const )
                  ?target@AssociationRole@Uml@@QBE?AV?$PointerAttr@VClass@Uml@@@Udm_VS10@@XZ (public: class Udm_VS10::PointerAttr<class Uml::Class> __thiscall Uml::AssociationRole::target(void)const )
                  ?target@CompositionChildRole@Uml@@QBE?AV?$PointerAttr@VClass@Uml@@@Udm_VS10@@XZ (public: class Udm_VS10::PointerAttr<class Uml::Class> __thiscall Uml::CompositionChildRole::target(void)const )
                  ?target@CompositionParentRole@Uml@@QBE?AV?$PointerAttr@VClass@Uml@@@Udm_VS10@@XZ (public: class Udm_VS10::PointerAttr<class Uml::Class> __thiscall Uml::CompositionParentRole::target(void)const )
                  ?theOther@Uml@@YA?BVAssociationRole@1@ABV21@@Z (class Uml::AssociationRole const __cdecl Uml::theOther(class Uml::AssociationRole const &))
                  ?theOther@Uml@@YA?BVCompositionChildRole@1@ABVCompositionParentRole@1@@Z (class Uml::CompositionChildRole const __cdecl Uml::theOther(class Uml::CompositionParentRole const &))
                  ?theOther@Uml@@YA?BVCompositionParentRole@1@ABVCompositionChildRole@1@@Z (class Uml::CompositionParentRole const __cdecl Uml::theOther(class Uml::CompositionChildRole const &))
                  ?toString@Object@Udm_VS10@@QBE?AV?$basic_string@DU?$char_traits@D@std@@V?$allocator@D@2@@std@@XZ (public: class std::basic_string<char,struct std::char_traits<char>,class std::allocator<char> > __thiscall Udm_VS10::Object::toString(void)const )
                  ?toString@ObjectImpl@Udm_VS10@@UBE?AV?$basic_string@DU?$char_traits@D@std@@V?$allocator@D@2@@std@@XZ (public: virtual class std::basic_string<char,struct std::char_traits<char>,class std::allocator<char> > __thiscall Udm_VS10::ObjectImpl::toString(void)const )
                  ?type@Attribute@Uml@@QBE?AVStringAttr@Udm_VS10@@XZ (public: class Udm_VS10::StringAttr __thiscall Uml::Attribute::type(void)const )
                  ?type@Object@Udm_VS10@@QBEABVClass@Uml@@XZ (public: class Uml::Class const & __thiscall Udm_VS10::Object::type(void)const )
                  ?uniqueId@Object@Udm_VS10@@QBEJXZ (public: long __thiscall Udm_VS10::Object::uniqueId(void)const )
                  ?uri2xsdname@xsd_ns_mapping_storage@UdmDom@@2V?$map@$$CBV?$basic_string@DU?$char_traits@D@std@@V?$allocator@D@2@@std@@$$CBV12@U?$less@$$CBV?$basic_string@DU?$char_traits@D@std@@V?$allocator@D@2@@std@@@2@V?$allocator@U?$pair@$$CBV?$basic_string@DU?$char_traits@D@std@@V?$allocator@D@2@@std@@$$CBV12@@std@@@2@@std@@A (public: static class std::map<class std::basic_string<char,struct std::char_traits<char>,class std::allocator<char> > const ,class std::basic_string<char,struct std::char_traits<char>,class std::allocator<char> > const ,struct std::less<class std::basic_string<char,struct std::char_traits<char>,class std::allocator<char> > const >,class std::allocator<struct std::pair<class std::basic_string<char,struct std::char_traits<char>,class std::allocator<char> > const ,class std::basic_string<char,struct std::char_traits<char>,class std::allocator<char> > const > > > UdmDom::xsd_ns_mapping_storage::uri2xsdname)
                  ?value@TaggedValue@Uml@@QBE?AVStringAttr@Udm_VS10@@XZ (public: class Udm_VS10::StringAttr __thiscall Uml::TaggedValue::value(void)const )
                  ?vector_to_string@UdmUtil@@YA?AV?$basic_string@DU?$char_traits@D@std@@V?$allocator@D@2@@std@@ABV?$vector@V?$basic_string@DU?$char_traits@D@std@@V?$allocator@D@2@@std@@V?$allocator@V?$basic_string@DU?$char_traits@D@std@@V?$allocator@D@2@@std@@@2@@3@D_N1@Z (class std::basic_string<char,struct std::char_traits<char>,class std::allocator<char> > __cdecl UdmUtil::vector_to_string(class std::vector<class std::basic_string<char,struct std::char_traits<char>,class std::allocator<char> >,class std::allocator<class std::basic_string<char,struct std::char_traits<char>,class std::allocator<char> > > > const &,char,bool,bool))
                  ?version@Diagram@Uml@@QBE?AVStringAttr@Udm_VS10@@XZ (public: class Udm_VS10::StringAttr __thiscall Uml::Diagram::version(void)const )
                  ?visibility@Attribute@Uml@@QBE?AVStringAttr@Udm_VS10@@XZ (public: class Udm_VS10::StringAttr __thiscall Uml::Attribute::visibility(void)const )
